C:/cygwin64/tmp/zcc00001B6CDAA42.asm:
     1                          MODULE Test_DMA_c
     2                          LINE 0, "Test_DMA.c"
Test_DMA.c:
                                
     1                          ;* * * * *  Small-C/Plus z88dk * * * * *
     2                          ;  Version: 19389-d83075798-20220308
     3                          ;
     4                          ;	Reconstructed for z80 Module Assembler
     5                          ;
     6                          ;	Module compile time: Sun Nov 05 18:10:46 2023
     7                          
     8                          
     9                          	C_LINE	0,"Test_DMA.c"
                                
                                	MODULE	Test_DMA_c
                                
                                
                                	INCLUDE "z80_crt0.hdr"
C:/Users/yannv/Documents/Projets_HW/z88dk/lib/../lib/z80_crt0.hdr:
     1                          ;
     2                          ;	Header file which contains all required variables from the
     3                          ;	startup that need to be exposed to individual C files
     4                          ;
     5                          ;	Stick in this file any routines which are needed or implicitly
     6                          ;	implied by sccz80.
     7                          ;
     8                          ;	This file is included by every module
     9                          ;	To handle multi module programs which use floating point
    10                          ;	routines in different modules, we have got rid of
    11                          ;	the conditional assembly around the float routines
    12                          
    13                          
    14                          	EXTERN	base_graphics	; Address of graphics screen
    15                          
    16                          	EXTERN	_cpfar2near	; Far->near conversion (z88)
    17                          	EXTERN	packintrout	; Process interrupt (z88 apps)
    18                          
    19                          	EXTERN	l_dcal		; jp(hl)
    20                          	EXTERN	cleanup		; cleanup before program exit
    21                          
    22                          
    23                          	EXTERN	l_jphl		; another jp(hl)
    24                          	EXTERN	l_jpix		; jp(ix)
    25                          	EXTERN	l_jpiy		; jp(iy)
    26                          
    27                          	EXTERN	l_ldi
    28                          	EXTERN	l_ldi_128
    29                          	EXTERN	l_ldi_256
    30                          
    31                          	EXTERN	l_outi
    32                          	EXTERN	l_outi_128
    33                          	EXTERN	l_outi_256
    34                          
    35                          	EXTERN	l_ini
    36                          	EXTERN	l_ini_128
    37                          	EXTERN	l_ini_256
    38                          	EXTERN	l_ini_512
    39                          
    40                          
    41                          	; Used for banked calls for __banked for sccz80 + sdcc
    42                          	EXTERN	banked_call
    43                          
    44                          
    45                          ;------------------------------------
    46                          ; Scopes for integer library routines
    47                          ;------------------------------------
    48                          
    49                          	EXTERN	l_getptr	;Get 3 byte pointer
    50                          	EXTERN	l_putptr	;Put 3 byte pointer
    51                          	EXTERN	l_gchar		;Get signed char
    52                          	EXTERN	l_gcharsp	;Get signed char  (peephole opt)
    53                          	EXTERN	l_gcharspsp	;Get signed char and push  (peephole opt)
    54                          	EXTERN	l_g2charspsp	;Get 2 signed char and push  (peephole opt)
    55                          	EXTERN	l_sxt		;Sign extend char
    56                          	EXTERN	l_gint		;Get int ld hl,(hl)
    57                          	EXTERN	l_gintsp	;Get int (peephole opt)
    58                          	EXTERN	l_gintspchar	;Get int,char (peephole opt)
    59                          	EXTERN	l_gintspsp	;Get int and push (peephole opt)
    60                          	EXTERN	l_g2intspsp	;Get 2 int and push (peephole opt)
    61                          	EXTERN	l_gintsp2de	;Get int, multiply by 2 and add from SP by de
    62                          	EXTERN	l_gint7de	;Get int, multiply by 7 and add from SP by de
    63                          	EXTERN	l_gint_eq	;Get int and test == 0
    64                          	EXTERN	l_ghtonsint	;Get reverse order int
    65                          	EXTERN	l_pint		;Put int: ld (de),hl
    66                          	EXTERN	l_pint_eq	;Put int and test == 0
    67                          	EXTERN	l_pint_pop	;Put int and pop place address
    68                          	EXTERN	l_or		;Int logical or
    69                          	EXTERN	l_xor		;Int logical xor
    70                          	EXTERN	l_and		;Int logical and
    71                          	EXTERN	l_eq		;Int equality
    72                          	EXTERN	l_ne		;Int inequality
    73                          	EXTERN	l_gt		;Int signed de >  hl
    74                          	EXTERN	l_le		;Int signed de <= hl
    75                          	EXTERN	l_ge		;Int signed de >= hl
    76                          	EXTERN	l_lt		;Int signed de <  hl
    77                          	EXTERN	l_uge		;Int unsigned de >= hl
    78                          	EXTERN	l_ult		;Int unsigned de <  hl
    79                          	EXTERN	l_ugt		;Int unsigned de >  hl
    80                          	EXTERN	l_ule		;Int unsigned de <= hl
    81                          	EXTERN	l_cmp		;Int signed compare
    82                          	EXTERN	l_ucmp		;Int unsigned compare
    83                          	EXTERN	l_asr		;Int signed de >> hl
    84                          	EXTERN	l_asr_hl_by_e	;Int signed hl >> e
    85                          	EXTERN	l_asr_u		;Int unsigned de >> hl
    86                          	EXTERN	l_asr_u_hl_by_e	;Int unsigned hl >> e
    87                          	EXTERN	l_asl		;Int de << hl
    88                          	EXTERN	l_sub		;Int subtract hl = de - hl
    89                          	EXTERN	l_neg		;Int negate
    90                          	EXTERN	l_com		;Int ~
    91                          	EXTERN	l_lneg		;Int logical negate
    92                          	EXTERN	l_bool		;Int boolean test
    93                          	EXTERN	l_cm_de	;
    94                          	EXTERN	l_cm_bc
    95                          	EXTERN	l_deneg
    96                          	EXTERN	l_bcneg
    97                          	EXTERN	l_case		;Integer case
    98                          	EXTERN	l_mult		;Integer hl = hl * de
    99                          	EXTERN	l_mult_u	;Integer unsigned *
   100                          	EXTERN	l_div		;Integer signed / hl=de/hl, de=de%hl
   101                          	EXTERN	l_div_u		;Integer unsigned /
   102                          	EXTERN	l_mod		;Integer % (for gbz80) hl=de%hl
   103                          	EXTERN	l_mod_u		;Integer unsigned % (for gbz80)
   104                          
   105                          ;------------------
   106                          ;Long functions now
   107                          ;------------------
   108                          
   109                          	EXTERN	lpush2		;Push a long under the stack
   110                          	EXTERN	l_int2long_s	;Int->long signed conversion
   111                          	EXTERN	l_int2long_s_float	;Int->long->float signed conversion (optimizer: use -O3)
   112                          	EXTERN	l_int2long_u_float	;uInt->ulong->float signed conversion
   113                          	EXTERN	l_glong		;Get long
   114                          	EXTERN	l_glongsp	;Get long (peephole opt)
   115                          	EXTERN	l_glonghlp	;Get pointer, then get long
   116                          	EXTERN	l_glong2sp	;Get long and copy on stack (peephole opt)
   117                          	EXTERN	l_glong2sp_hlp
   118                          	EXTERN	l_long_add
   119                          	EXTERN	l_long_and
   120                          	EXTERN	l_long_asl
   121                          	EXTERN	l_long_asr
   122                          	EXTERN	l_long_aslo	;Long << shift in c
   123                          	EXTERN	l_long_asro	;Long >> shift in c (signed)
   124                          	EXTERN	l_long_bool
   125                          	EXTERN	l_long_cmp
   126                          	EXTERN	l_long_com
   127                          	EXTERN	l_long_eq
   128                          	EXTERN	l_long_ge
   129                          	EXTERN	l_long_gt
   130                          	EXTERN	l_long_le
   131                          	EXTERN	l_long_lneg
   132                          	EXTERN	l_long_lt
   133                          	EXTERN	l_long_ne
   134                          	EXTERN	l_long_neg
   135                          	EXTERN	l_long_or
   136                          	EXTERN	l_long_sub
   137                          	EXTERN	l_long_ucmp
   138                          	EXTERN	l_long_uge
   139                          	EXTERN	l_long_ugt
   140                          	EXTERN	l_long_ule
   141                          	EXTERN	l_long_ult
   142                          	EXTERN	l_long_xor
   143                          	EXTERN	l_plong
   144                          	EXTERN	l_inclong	;Increment long
   145                          	EXTERN	l_declong	;Decrement long
   146                          	EXTERN	l_long_div
   147                          	EXTERN	l_long_div_u
   148                          	EXTERN	l_long_mod
   149                          	EXTERN	l_long_mod_u
   150                          	EXTERN	l_long_mult
   151                          	EXTERN	l_long_mult_u
   152                          	EXTERN	l_long_asr_u	;Long unsigned >>
   153                          	EXTERN	l_long_asr_uo	;Long unsigned >> shift in c
   154                          	EXTERN	l_long_case
   155                          
   156                          ;--------------------------------------------------------------
   157                          ; Floating point support routines, mostly in library
   158                          ;--------------------------------------------------------------
   159                          
   160                          	EXTERN	dadd
   161                          	EXTERN	ddiv
   162                          	EXTERN	dsub
   163                          	EXTERN	dmul
   164                          
   165                          	EXTERN	dge
   166                          	EXTERN	dgt
   167                          	EXTERN	dleq
   168                          	EXTERN	dlt
   169                          	EXTERN	deq
   170                          	EXTERN	dne
   171                          
   172                          	EXTERN	minusfa		;FA=-FA
   173                          
   174                          	EXTERN	dswap		;Exchange FA with top of stack
   175                          	EXTERN	float		;Convert int to float
   176                          	EXTERN	ufloat		;unsigned int to float
   177                          	EXTERN	ifix		;Convert float to int
   178                          
   179                          	EXTERN	dstore		;FA->(de)
   180                          	EXTERN	dload		;FA<-(hl)
   181                          	EXTERN	dldpsh		;(hl)->(stack)
   182                          	EXTERN	dpush		;FA->(stack)
   183                          	EXTERN	dpush2		;FA->(stack under)
   184                          	EXTERN	dpush3		;FA->(stack under,long)
   185                          
   186                          	EXTERN	fa		;may not be needed in this file
   187                          	EXTERN	extra		;ditto
   188                          	EXTERN	__atof2		;string->fa conversion
   189                          	EXTERN	l_f48_ldexp	;FA * pow2(N)
   190                          	EXTERN	l_f48_f16tof	;Convert _Float16 to float
   191                          	EXTERN	l_f48_ftof16	;Convert float to _Float16
   192                          
   193                          	; 16 bit float ABI
   194                          	EXTERN	l_f16_add
   195                          	EXTERN	l_f16_sub
   196                          	EXTERN	l_f16_mul
   197                          	EXTERN	l_f16_div
   198                          	EXTERN	l_f16_le
   199                          	EXTERN	l_f16_lt
   200                          	EXTERN	l_f16_ge
   201                          	EXTERN	l_f16_gt
   202                          	EXTERN	l_f16_eq
   203                          	EXTERN	l_f16_ne
   204                          	EXTERN	l_f16_swap
   205                          	EXTERN	l_f16_schar2f
   206                          	EXTERN	l_f16_uchar2f
   207                          	EXTERN	l_f16_sint2f
   208                          	EXTERN	l_f16_uint2f
   209                          	EXTERN	l_f16_slong2f
   210                          	EXTERN	l_f16_ulong2f
   211                          	EXTERN	l_f16_f2sint
   212                          	EXTERN	l_f16_f2uint
   213                          	EXTERN	l_f16_f2slong
   214                          	EXTERN	l_f16_f2ulong
   215                          	EXTERN	l_f16_ldexp
   216                          	EXTERN	l_f16_invf	;Only for ieee16
   217                          	EXTERN	l_f16_f16tof	;A noop
   218                          	EXTERN	l_f16_ftof16	;A noop
   219                          
   220                          	; 32 bit float ABI
   221                          	EXTERN	l_f32_add
   222                          	EXTERN	l_f32_sub
   223                          	EXTERN	l_f32_mul
   224                          	EXTERN	l_f32_div
   225                          	EXTERN	l_f32_le
   226                          	EXTERN	l_f32_lt
   227                          	EXTERN	l_f32_ge
   228                          	EXTERN	l_f32_gt
   229                          	EXTERN	l_f32_eq
   230                          	EXTERN	l_f32_ne
   231                          	EXTERN	l_f32_swap
   232                          	EXTERN	l_f32_negate
   233                          	EXTERN	l_f32_schar2f
   234                          	EXTERN	l_f32_uchar2f
   235                          	EXTERN	l_f32_sint2f
   236                          	EXTERN	l_f32_uint2f
   237                          	EXTERN	l_f32_slong2f
   238                          	EXTERN	l_f32_ulong2f
   239                          	EXTERN	l_f32_f2sint
   240                          	EXTERN	l_f32_f2uint
   241                          	EXTERN	l_f32_f2slong
   242                          	EXTERN	l_f32_f2ulong
   243                          	EXTERN	l_f32_ldexp
   244                          	EXTERN	l_f32_invf	;Only for math32
   245                          	EXTERN	l_f32_f16tof	;Convert _Float16 to float
   246                          	EXTERN	l_f32_ftof16	;Convert float to _Float16
   247                          
   248                          	; 64 bit float ABI
   249                          	EXTERN	l_f64_load
   250                          	EXTERN	l_f64_add
   251                          	EXTERN	l_f64_sub
   252                          	EXTERN	l_f64_mul
   253                          	EXTERN	l_f64_div
   254                          	EXTERN	l_f64_le
   255                          	EXTERN	l_f64_lt
   256                          	EXTERN	l_f64_ge
   257                          	EXTERN	l_f64_gt
   258                          	EXTERN	l_f64_eq
   259                          	EXTERN	l_f64_ne
   260                          	EXTERN	l_f64_negate
   261                          	EXTERN	l_f64_swap
   262                          	EXTERN	l_f64_store
   263                          	EXTERN	l_f64_dpush
   264                          	EXTERN	l_f64_dldpsh
   265                          	EXTERN	l_f64_dpush2
   266                          	EXTERN	l_f64_dpush3
   267                          	EXTERN	l_f64_schar2f
   268                          	EXTERN	l_f64_uchar2f
   269                          	EXTERN	l_f64_sint2f
   270                          	EXTERN	l_f64_uint2f
   271                          	EXTERN	l_f64_slong2f
   272                          	EXTERN	l_f64_ulong2f
   273                          	EXTERN	l_f64_f2sint
   274                          	EXTERN	l_f64_f2uint
   275                          	EXTERN	l_f64_f2slong
   276                          	EXTERN	l_f64_f2ulong
   277                          	EXTERN	l_f64_ldexp
   278                          	EXTERN	l_f64_f16tof	;Convert _Float16 to float
   279                          	EXTERN	l_f64_ftof16	;Convert float to _Float16
   280                          
   281                          
   282                          ;--------------------------------------------------
   283                          ; Routines for picking up variables from far memory
   284                          ;--------------------------------------------------
   285                          
   286                          	EXTERN	lp_gchar
   287                          	EXTERN	lp_gdoub
   288                          	EXTERN	lp_gint
   289                          	EXTERN	lp_glong
   290                          	EXTERN	lp_gptr
   291                          	EXTERN	lp_pchar
   292                          	EXTERN	lp_pdoub
   293                          	EXTERN	lp_pint
   294                          	EXTERN	lp_plong
   295                          	EXTERN	lp_pptr
   296                          
   297                          	EXTERN	l_farcall	; Long call
   298                          
   299                          
   300                          ;--------------------------------------------------
   301                          ; Routines for handling 64 bit integers for sccz80
   302                          ;--------------------------------------------------
   303                          
   304                          	EXTERN	__i64_acc
   305                          	EXTERN	l_i64_load
   306                          	EXTERN	l_i64_store
   307                          	EXTERN	l_i64_push
   308                          	EXTERN	l_i64_add
   309                          	EXTERN	l_i64_sub
   310                          	EXTERN	l_i64_mult
   311                          	EXTERN	l_i64_mult_u
   312                          	EXTERN	l_i64_mod
   313                          	EXTERN	l_i64_mod_u
   314                          	EXTERN	l_i64_div
   315                          	EXTERN	l_i64_div_u
   316                          	EXTERN	l_i64_or
   317                          	EXTERN	l_i64_xor
   318                          	EXTERN	l_i64_and
   319                          	EXTERN	l_i64_asr_u
   320                          	EXTERN	l_i64_asr_uo
   321                          	EXTERN	l_i64_asr
   322                          	EXTERN	l_i64_asro
   323                          	EXTERN	l_i64_asl
   324                          	EXTERN	l_i64_aslo
   325                          	EXTERN	l_i64_inc
   326                          	EXTERN	l_i64_dec
   327                          	EXTERN	l_i64_eq0
   328                          	EXTERN	l_i64_eq
   329                          	EXTERN	l_i64_ne
   330                          	EXTERN	l_i64_ge
   331                          	EXTERN	l_i64_gt
   332                          	EXTERN	l_i64_uge
   333                          	EXTERN	l_i64_ugt
   334                          	EXTERN	l_i64_le
   335                          	EXTERN	l_i64_lt
   336                          	EXTERN	l_i64_ule
   337                          	EXTERN	l_i64_ult
   338                          	EXTERN	l_i64_lneg
   339                          	EXTERN	l_i64_neg
   340                          	EXTERN	l_i64_com
   341                          	EXTERN	l_i64_case
   342                          	EXTERN	l_i64_push_under_int
   343                          	EXTERN	l_i64_push_under_int_mhl
   344                          	EXTERN	l_i64_copy
   345                          	EXTERN	l_i64_slong2i64
   346                          	EXTERN	l_i64_ulong2i64
   347                          	EXTERN	l_i64_sint2i64
   348                          	EXTERN	l_i64_uint2i64
   349                          	EXTERN	l_i64_u64_toi32
   350                          
   351                          
   352                          ;-------------------
   353                          ; Routines for SDCC
   354                          ;-------------------
   355                          
   356                          	EXTERN	__divsint_rrx_s
   357                          	EXTERN	__divsint_rrx_hds
   358                          	EXTERN	__divuint_rrx_s
   359                          	EXTERN	__divuint_rrx_hds
   360                          	EXTERN	__divsuchar_rrx_s
   361                          	EXTERN	__divuschar_rrx_s
   362                          	EXTERN	__divuchar_rrx_s
   363                          	EXTERN	__divuchar_rrx_hds
   364                          	EXTERN	__moduchar_rrx_s
   365                          	EXTERN	__moduchar_rrx_hds
   366                          	EXTERN	__moduschar_rrx_s
   367                          	EXTERN	__modsuchar_rrx_s
   368                          	EXTERN	__modschar_rrx_s
   369                          	EXTERN	__modschar_rrx_hds
   370                          	EXTERN	__modsint_rrx_s
   371                          	EXTERN	__modsint_rrx_hds
   372                          	EXTERN	__moduint_rrx_s
   373                          	EXTERN	__moduint_rrx_hds
   374                          	EXTERN	__get_remainder
   375                          	EXTERN	__divunsigned
   376                          	EXTERN	__div_signexte
   377                          	EXTERN	__divu16
   378                          	EXTERN	__div16
   379                          	EXTERN	__div8
   380                          	EXTERN	__muluchar_rrx_s
   381                          	EXTERN	__muluchar_rrx_hds
   382                          	EXTERN	__mulsuchar_rrx_s
   383                          	EXTERN	__muluschar_rrx_s
   384                          	EXTERN	__mulschar_rrx_s
   385                          	EXTERN	__mulschar_rrx_hds
   386                          	EXTERN	__mulint_rrx_s
   387                          	EXTERN	__mulint_rrx_hds
   388                          	EXTERN	__mul16
   389                          	EXTERN	__rrulong_rrx_s
   390                          	EXTERN	__rrslong_rrx_s
   391                          	EXTERN	__rlslong_rrx_s
   392                          	EXTERN	__rlulong_rrx_s
   393                          	EXTERN	__muluchar
   394                          	EXTERN	__mulschar
   395                          
   396                          	EXTERN	l_push_di
   397                          	EXTERN	l_pop_ei
   398                          
   399                          	EXTERN	l_debug_push_frame
   400                          	EXTERN	l_debug_pop_frame
   401                          
   402                          
Test_DMA.c:
                                
                                
                                	C_LINE	0,"C:\Users\yannv\Documents\Projets_HW\z88dk\lib\config\..\..\/include/stdio.h"
C:\Users\yannv\Documents\Projets_HW\z88dk\lib\config\..\..\/include/stdio.h:
                                	C_LINE	0,"C:\Users\yannv\Documents\Projets_HW\z88dk\lib\config\..\..\/include/sys/compiler.h"
C:\Users\yannv\Documents\Projets_HW\z88dk\lib\config\..\..\/include/sys/compiler.h:
                                	C_LINE	4,"C:\Users\yannv\Documents\Projets_HW\z88dk\lib\config\..\..\/include/stdio.h"
C:\Users\yannv\Documents\Projets_HW\z88dk\lib\config\..\..\/include/stdio.h:
     4                          	C_LINE	0,"C:\Users\yannv\Documents\Projets_HW\z88dk\lib\config\..\..\/include/stdint.h"
C:\Users\yannv\Documents\Projets_HW\z88dk\lib\config\..\..\/include/stdint.h:
                                	C_LINE	0,"C:\Users\yannv\Documents\Projets_HW\z88dk\lib\config\..\..\/include/sys/types.h"
C:\Users\yannv\Documents\Projets_HW\z88dk\lib\config\..\..\/include/sys/types.h:
                                	C_LINE	17,"C:\Users\yannv\Documents\Projets_HW\z88dk\lib\config\..\..\/include/sys/types.h"
    17                          	C_LINE	26,"C:\Users\yannv\Documents\Projets_HW\z88dk\lib\config\..\..\/include/sys/types.h"
    26                          	C_LINE	35,"C:\Users\yannv\Documents\Projets_HW\z88dk\lib\config\..\..\/include/sys/types.h"
    35                          	C_LINE	40,"C:\Users\yannv\Documents\Projets_HW\z88dk\lib\config\..\..\/include/sys/types.h"
    40                          	C_LINE	45,"C:\Users\yannv\Documents\Projets_HW\z88dk\lib\config\..\..\/include/sys/types.h"
    45                          	C_LINE	50,"C:\Users\yannv\Documents\Projets_HW\z88dk\lib\config\..\..\/include/sys/types.h"
    50                          	C_LINE	55,"C:\Users\yannv\Documents\Projets_HW\z88dk\lib\config\..\..\/include/sys/types.h"
    55                          	C_LINE	60,"C:\Users\yannv\Documents\Projets_HW\z88dk\lib\config\..\..\/include/sys/types.h"
    60                          	C_LINE	65,"C:\Users\yannv\Documents\Projets_HW\z88dk\lib\config\..\..\/include/sys/types.h"
    65                          	C_LINE	70,"C:\Users\yannv\Documents\Projets_HW\z88dk\lib\config\..\..\/include/sys/types.h"
    70                          	C_LINE	75,"C:\Users\yannv\Documents\Projets_HW\z88dk\lib\config\..\..\/include/sys/types.h"
    75                          	C_LINE	80,"C:\Users\yannv\Documents\Projets_HW\z88dk\lib\config\..\..\/include/sys/types.h"
    80                          	C_LINE	85,"C:\Users\yannv\Documents\Projets_HW\z88dk\lib\config\..\..\/include/sys/types.h"
    85                          	C_LINE	89,"C:\Users\yannv\Documents\Projets_HW\z88dk\lib\config\..\..\/include/sys/types.h"
    89                          	C_LINE	90,"C:\Users\yannv\Documents\Projets_HW\z88dk\lib\config\..\..\/include/sys/types.h"
    90                          	C_LINE	91,"C:\Users\yannv\Documents\Projets_HW\z88dk\lib\config\..\..\/include/sys/types.h"
    91                          	C_LINE	93,"C:\Users\yannv\Documents\Projets_HW\z88dk\lib\config\..\..\/include/sys/types.h"
    93                          	C_LINE	94,"C:\Users\yannv\Documents\Projets_HW\z88dk\lib\config\..\..\/include/sys/types.h"
    94                          	C_LINE	95,"C:\Users\yannv\Documents\Projets_HW\z88dk\lib\config\..\..\/include/sys/types.h"
    95                          	C_LINE	101,"C:\Users\yannv\Documents\Projets_HW\z88dk\lib\config\..\..\/include/sys/types.h"
   101                          	C_LINE	106,"C:\Users\yannv\Documents\Projets_HW\z88dk\lib\config\..\..\/include/sys/types.h"
   106                          	C_LINE	11,"C:\Users\yannv\Documents\Projets_HW\z88dk\lib\config\..\..\/include/stdint.h"
C:\Users\yannv\Documents\Projets_HW\z88dk\lib\config\..\..\/include/stdint.h:
    11                          	C_LINE	13,"C:\Users\yannv\Documents\Projets_HW\z88dk\lib\config\..\..\/include/stdint.h"
    13                          	C_LINE	14,"C:\Users\yannv\Documents\Projets_HW\z88dk\lib\config\..\..\/include/stdint.h"
    14                          	C_LINE	15,"C:\Users\yannv\Documents\Projets_HW\z88dk\lib\config\..\..\/include/stdint.h"
    15                          	C_LINE	17,"C:\Users\yannv\Documents\Projets_HW\z88dk\lib\config\..\..\/include/stdint.h"
    17                          	C_LINE	18,"C:\Users\yannv\Documents\Projets_HW\z88dk\lib\config\..\..\/include/stdint.h"
    18                          	C_LINE	19,"C:\Users\yannv\Documents\Projets_HW\z88dk\lib\config\..\..\/include/stdint.h"
    19                          	C_LINE	21,"C:\Users\yannv\Documents\Projets_HW\z88dk\lib\config\..\..\/include/stdint.h"
    21                          	C_LINE	22,"C:\Users\yannv\Documents\Projets_HW\z88dk\lib\config\..\..\/include/stdint.h"
    22                          	C_LINE	23,"C:\Users\yannv\Documents\Projets_HW\z88dk\lib\config\..\..\/include/stdint.h"
    23                          	C_LINE	25,"C:\Users\yannv\Documents\Projets_HW\z88dk\lib\config\..\..\/include/stdint.h"
    25                          	C_LINE	26,"C:\Users\yannv\Documents\Projets_HW\z88dk\lib\config\..\..\/include/stdint.h"
    26                          	C_LINE	27,"C:\Users\yannv\Documents\Projets_HW\z88dk\lib\config\..\..\/include/stdint.h"
    27                          	C_LINE	29,"C:\Users\yannv\Documents\Projets_HW\z88dk\lib\config\..\..\/include/stdint.h"
    29                          	C_LINE	30,"C:\Users\yannv\Documents\Projets_HW\z88dk\lib\config\..\..\/include/stdint.h"
    30                          	C_LINE	31,"C:\Users\yannv\Documents\Projets_HW\z88dk\lib\config\..\..\/include/stdint.h"
    31                          	C_LINE	33,"C:\Users\yannv\Documents\Projets_HW\z88dk\lib\config\..\..\/include/stdint.h"
    33                          	C_LINE	34,"C:\Users\yannv\Documents\Projets_HW\z88dk\lib\config\..\..\/include/stdint.h"
    34                          	C_LINE	35,"C:\Users\yannv\Documents\Projets_HW\z88dk\lib\config\..\..\/include/stdint.h"
    35                          	C_LINE	37,"C:\Users\yannv\Documents\Projets_HW\z88dk\lib\config\..\..\/include/stdint.h"
    37                          	C_LINE	38,"C:\Users\yannv\Documents\Projets_HW\z88dk\lib\config\..\..\/include/stdint.h"
    38                          	C_LINE	40,"C:\Users\yannv\Documents\Projets_HW\z88dk\lib\config\..\..\/include/stdint.h"
    40                          	C_LINE	41,"C:\Users\yannv\Documents\Projets_HW\z88dk\lib\config\..\..\/include/stdint.h"
    41                          	C_LINE	43,"C:\Users\yannv\Documents\Projets_HW\z88dk\lib\config\..\..\/include/stdint.h"
    43                          	C_LINE	44,"C:\Users\yannv\Documents\Projets_HW\z88dk\lib\config\..\..\/include/stdint.h"
    44                          	C_LINE	49,"C:\Users\yannv\Documents\Projets_HW\z88dk\lib\config\..\..\/include/stdint.h"
    49                          	C_LINE	52,"C:\Users\yannv\Documents\Projets_HW\z88dk\lib\config\..\..\/include/stdint.h"
    52                          	C_LINE	54,"C:\Users\yannv\Documents\Projets_HW\z88dk\lib\config\..\..\/include/stdint.h"
    54                          	C_LINE	55,"C:\Users\yannv\Documents\Projets_HW\z88dk\lib\config\..\..\/include/stdint.h"
    55                          	C_LINE	5,"C:\Users\yannv\Documents\Projets_HW\z88dk\lib\config\..\..\/include/stdio.h"
C:\Users\yannv\Documents\Projets_HW\z88dk\lib\config\..\..\/include/stdio.h:
     5                          	C_LINE	0,"C:\Users\yannv\Documents\Projets_HW\z88dk\lib\config\..\..\/include/fcntl.h"
C:\Users\yannv\Documents\Projets_HW\z88dk\lib\config\..\..\/include/fcntl.h:
                                	C_LINE	34,"C:\Users\yannv\Documents\Projets_HW\z88dk\lib\config\..\..\/include/fcntl.h"
    34                          	C_LINE	37,"C:\Users\yannv\Documents\Projets_HW\z88dk\lib\config\..\..\/include/fcntl.h"
    37                          	C_LINE	38,"C:\Users\yannv\Documents\Projets_HW\z88dk\lib\config\..\..\/include/fcntl.h"
    38                          	C_LINE	39,"C:\Users\yannv\Documents\Projets_HW\z88dk\lib\config\..\..\/include/fcntl.h"
    39                          	C_LINE	40,"C:\Users\yannv\Documents\Projets_HW\z88dk\lib\config\..\..\/include/fcntl.h"
    40                          	C_LINE	41,"C:\Users\yannv\Documents\Projets_HW\z88dk\lib\config\..\..\/include/fcntl.h"
    41                          	C_LINE	42,"C:\Users\yannv\Documents\Projets_HW\z88dk\lib\config\..\..\/include/fcntl.h"
    42                          	C_LINE	44,"C:\Users\yannv\Documents\Projets_HW\z88dk\lib\config\..\..\/include/fcntl.h"
    44                          	C_LINE	45,"C:\Users\yannv\Documents\Projets_HW\z88dk\lib\config\..\..\/include/fcntl.h"
    45                          	C_LINE	52,"C:\Users\yannv\Documents\Projets_HW\z88dk\lib\config\..\..\/include/fcntl.h"
    52                          	C_LINE	53,"C:\Users\yannv\Documents\Projets_HW\z88dk\lib\config\..\..\/include/fcntl.h"
    53                          	C_LINE	54,"C:\Users\yannv\Documents\Projets_HW\z88dk\lib\config\..\..\/include/fcntl.h"
    54                          	C_LINE	57,"C:\Users\yannv\Documents\Projets_HW\z88dk\lib\config\..\..\/include/fcntl.h"
    57                          	C_LINE	76,"C:\Users\yannv\Documents\Projets_HW\z88dk\lib\config\..\..\/include/fcntl.h"
    76                          	C_LINE	85,"C:\Users\yannv\Documents\Projets_HW\z88dk\lib\config\..\..\/include/fcntl.h"
    85                          	C_LINE	98,"C:\Users\yannv\Documents\Projets_HW\z88dk\lib\config\..\..\/include/fcntl.h"
    98                          	C_LINE	99,"C:\Users\yannv\Documents\Projets_HW\z88dk\lib\config\..\..\/include/fcntl.h"
    99                          	C_LINE	100,"C:\Users\yannv\Documents\Projets_HW\z88dk\lib\config\..\..\/include/fcntl.h"
   100                          	C_LINE	74,"C:\Users\yannv\Documents\Projets_HW\z88dk\lib\config\..\..\/include/stdio.h"
C:\Users\yannv\Documents\Projets_HW\z88dk\lib\config\..\..\/include/stdio.h:
    74                          	C_LINE	87,"C:\Users\yannv\Documents\Projets_HW\z88dk\lib\config\..\..\/include/stdio.h"
    87                          	C_LINE	137,"C:\Users\yannv\Documents\Projets_HW\z88dk\lib\config\..\..\/include/stdio.h"
   137                          	C_LINE	156,"C:\Users\yannv\Documents\Projets_HW\z88dk\lib\config\..\..\/include/stdio.h"
   156                          	C_LINE	161,"C:\Users\yannv\Documents\Projets_HW\z88dk\lib\config\..\..\/include/stdio.h"
   161                          	C_LINE	162,"C:\Users\yannv\Documents\Projets_HW\z88dk\lib\config\..\..\/include/stdio.h"
   162                          	C_LINE	171,"C:\Users\yannv\Documents\Projets_HW\z88dk\lib\config\..\..\/include/stdio.h"
   171                          	C_LINE	174,"C:\Users\yannv\Documents\Projets_HW\z88dk\lib\config\..\..\/include/stdio.h"
   174                          	C_LINE	178,"C:\Users\yannv\Documents\Projets_HW\z88dk\lib\config\..\..\/include/stdio.h"
   178                          	C_LINE	179,"C:\Users\yannv\Documents\Projets_HW\z88dk\lib\config\..\..\/include/stdio.h"
   179                          	C_LINE	180,"C:\Users\yannv\Documents\Projets_HW\z88dk\lib\config\..\..\/include/stdio.h"
   180                          	C_LINE	181,"C:\Users\yannv\Documents\Projets_HW\z88dk\lib\config\..\..\/include/stdio.h"
   181                          	C_LINE	182,"C:\Users\yannv\Documents\Projets_HW\z88dk\lib\config\..\..\/include/stdio.h"
   182                          	C_LINE	183,"C:\Users\yannv\Documents\Projets_HW\z88dk\lib\config\..\..\/include/stdio.h"
   183                          	C_LINE	187,"C:\Users\yannv\Documents\Projets_HW\z88dk\lib\config\..\..\/include/stdio.h"
   187                          	C_LINE	188,"C:\Users\yannv\Documents\Projets_HW\z88dk\lib\config\..\..\/include/stdio.h"
   188                          	C_LINE	190,"C:\Users\yannv\Documents\Projets_HW\z88dk\lib\config\..\..\/include/stdio.h"
   190                          	C_LINE	221,"C:\Users\yannv\Documents\Projets_HW\z88dk\lib\config\..\..\/include/stdio.h"
   221                          	C_LINE	223,"C:\Users\yannv\Documents\Projets_HW\z88dk\lib\config\..\..\/include/stdio.h"
   223                          	C_LINE	224,"C:\Users\yannv\Documents\Projets_HW\z88dk\lib\config\..\..\/include/stdio.h"
   224                          	C_LINE	226,"C:\Users\yannv\Documents\Projets_HW\z88dk\lib\config\..\..\/include/stdio.h"
   226                          	C_LINE	227,"C:\Users\yannv\Documents\Projets_HW\z88dk\lib\config\..\..\/include/stdio.h"
   227                          	C_LINE	228,"C:\Users\yannv\Documents\Projets_HW\z88dk\lib\config\..\..\/include/stdio.h"
   228                          	C_LINE	231,"C:\Users\yannv\Documents\Projets_HW\z88dk\lib\config\..\..\/include/stdio.h"
   231                          	C_LINE	232,"C:\Users\yannv\Documents\Projets_HW\z88dk\lib\config\..\..\/include/stdio.h"
   232                          	C_LINE	233,"C:\Users\yannv\Documents\Projets_HW\z88dk\lib\config\..\..\/include/stdio.h"
   233                          	C_LINE	234,"C:\Users\yannv\Documents\Projets_HW\z88dk\lib\config\..\..\/include/stdio.h"
   234                          	C_LINE	249,"C:\Users\yannv\Documents\Projets_HW\z88dk\lib\config\..\..\/include/stdio.h"
   249                          	C_LINE	250,"C:\Users\yannv\Documents\Projets_HW\z88dk\lib\config\..\..\/include/stdio.h"
   250                          	C_LINE	253,"C:\Users\yannv\Documents\Projets_HW\z88dk\lib\config\..\..\/include/stdio.h"
   253                          	C_LINE	256,"C:\Users\yannv\Documents\Projets_HW\z88dk\lib\config\..\..\/include/stdio.h"
   256                          	C_LINE	257,"C:\Users\yannv\Documents\Projets_HW\z88dk\lib\config\..\..\/include/stdio.h"
   257                          	C_LINE	264,"C:\Users\yannv\Documents\Projets_HW\z88dk\lib\config\..\..\/include/stdio.h"
   264                          	C_LINE	267,"C:\Users\yannv\Documents\Projets_HW\z88dk\lib\config\..\..\/include/stdio.h"
   267                          	C_LINE	268,"C:\Users\yannv\Documents\Projets_HW\z88dk\lib\config\..\..\/include/stdio.h"
   268                          	C_LINE	269,"C:\Users\yannv\Documents\Projets_HW\z88dk\lib\config\..\..\/include/stdio.h"
   269                          	C_LINE	270,"C:\Users\yannv\Documents\Projets_HW\z88dk\lib\config\..\..\/include/stdio.h"
   270                          	C_LINE	271,"C:\Users\yannv\Documents\Projets_HW\z88dk\lib\config\..\..\/include/stdio.h"
   271                          	C_LINE	272,"C:\Users\yannv\Documents\Projets_HW\z88dk\lib\config\..\..\/include/stdio.h"
   272                          	C_LINE	278,"C:\Users\yannv\Documents\Projets_HW\z88dk\lib\config\..\..\/include/stdio.h"
   278                          	C_LINE	285,"C:\Users\yannv\Documents\Projets_HW\z88dk\lib\config\..\..\/include/stdio.h"
   285                          	C_LINE	286,"C:\Users\yannv\Documents\Projets_HW\z88dk\lib\config\..\..\/include/stdio.h"
   286                          	C_LINE	287,"C:\Users\yannv\Documents\Projets_HW\z88dk\lib\config\..\..\/include/stdio.h"
   287                          	C_LINE	288,"C:\Users\yannv\Documents\Projets_HW\z88dk\lib\config\..\..\/include/stdio.h"
   288                          	C_LINE	289,"C:\Users\yannv\Documents\Projets_HW\z88dk\lib\config\..\..\/include/stdio.h"
   289                          	C_LINE	299,"C:\Users\yannv\Documents\Projets_HW\z88dk\lib\config\..\..\/include/stdio.h"
   299                          	C_LINE	304,"C:\Users\yannv\Documents\Projets_HW\z88dk\lib\config\..\..\/include/stdio.h"
   304                          	C_LINE	309,"C:\Users\yannv\Documents\Projets_HW\z88dk\lib\config\..\..\/include/stdio.h"
   309                          	C_LINE	312,"C:\Users\yannv\Documents\Projets_HW\z88dk\lib\config\..\..\/include/stdio.h"
   312                          	C_LINE	315,"C:\Users\yannv\Documents\Projets_HW\z88dk\lib\config\..\..\/include/stdio.h"
   315                          	C_LINE	318,"C:\Users\yannv\Documents\Projets_HW\z88dk\lib\config\..\..\/include/stdio.h"
   318                          	C_LINE	320,"C:\Users\yannv\Documents\Projets_HW\z88dk\lib\config\..\..\/include/stdio.h"
   320                          	C_LINE	323,"C:\Users\yannv\Documents\Projets_HW\z88dk\lib\config\..\..\/include/stdio.h"
   323                          	C_LINE	325,"C:\Users\yannv\Documents\Projets_HW\z88dk\lib\config\..\..\/include/stdio.h"
   325                          	C_LINE	326,"C:\Users\yannv\Documents\Projets_HW\z88dk\lib\config\..\..\/include/stdio.h"
   326                          	C_LINE	328,"C:\Users\yannv\Documents\Projets_HW\z88dk\lib\config\..\..\/include/stdio.h"
   328                          	C_LINE	330,"C:\Users\yannv\Documents\Projets_HW\z88dk\lib\config\..\..\/include/stdio.h"
   330                          	C_LINE	334,"C:\Users\yannv\Documents\Projets_HW\z88dk\lib\config\..\..\/include/stdio.h"
   334                          	C_LINE	336,"C:\Users\yannv\Documents\Projets_HW\z88dk\lib\config\..\..\/include/stdio.h"
   336                          	C_LINE	340,"C:\Users\yannv\Documents\Projets_HW\z88dk\lib\config\..\..\/include/stdio.h"
   340                          	C_LINE	343,"C:\Users\yannv\Documents\Projets_HW\z88dk\lib\config\..\..\/include/stdio.h"
   343                          	C_LINE	352,"C:\Users\yannv\Documents\Projets_HW\z88dk\lib\config\..\..\/include/stdio.h"
   352                          	C_LINE	354,"C:\Users\yannv\Documents\Projets_HW\z88dk\lib\config\..\..\/include/stdio.h"
   354                          	C_LINE	357,"C:\Users\yannv\Documents\Projets_HW\z88dk\lib\config\..\..\/include/stdio.h"
   357                          	C_LINE	359,"C:\Users\yannv\Documents\Projets_HW\z88dk\lib\config\..\..\/include/stdio.h"
   359                          	C_LINE	361,"C:\Users\yannv\Documents\Projets_HW\z88dk\lib\config\..\..\/include/stdio.h"
   361                          	C_LINE	5,"Test_DMA.c"
Test_DMA.c:
     5                          	C_LINE	0,"C:\Users\yannv\Documents\Projets_HW\z88dk\lib\config\..\..\/include/games.h"
C:\Users\yannv\Documents\Projets_HW\z88dk\lib\config\..\..\/include/games.h:
                                	C_LINE	22,"C:\Users\yannv\Documents\Projets_HW\z88dk\lib\config\..\..\/include/games.h"
    22                          	C_LINE	23,"C:\Users\yannv\Documents\Projets_HW\z88dk\lib\config\..\..\/include/games.h"
    23                          	C_LINE	26,"C:\Users\yannv\Documents\Projets_HW\z88dk\lib\config\..\..\/include/games.h"
    26                          	C_LINE	29,"C:\Users\yannv\Documents\Projets_HW\z88dk\lib\config\..\..\/include/games.h"
    29                          	C_LINE	30,"C:\Users\yannv\Documents\Projets_HW\z88dk\lib\config\..\..\/include/games.h"
    30                          	C_LINE	45,"C:\Users\yannv\Documents\Projets_HW\z88dk\lib\config\..\..\/include/games.h"
    45                          	C_LINE	50,"C:\Users\yannv\Documents\Projets_HW\z88dk\lib\config\..\..\/include/games.h"
    50                          	C_LINE	52,"C:\Users\yannv\Documents\Projets_HW\z88dk\lib\config\..\..\/include/games.h"
    52                          	C_LINE	65,"C:\Users\yannv\Documents\Projets_HW\z88dk\lib\config\..\..\/include/games.h"
    65                          	C_LINE	6,"Test_DMA.c"
Test_DMA.c:
     6                          	C_LINE	0,"C:\Users\yannv\Documents\Projets_HW\z88dk\lib\config\..\..\/include/stdlib.h"
C:\Users\yannv\Documents\Projets_HW\z88dk\lib\config\..\..\/include/stdlib.h:
                                	C_LINE	27,"C:\Users\yannv\Documents\Projets_HW\z88dk\lib\config\..\..\/include/stdlib.h"
    27                          	C_LINE	28,"C:\Users\yannv\Documents\Projets_HW\z88dk\lib\config\..\..\/include/stdlib.h"
    28                          	C_LINE	30,"C:\Users\yannv\Documents\Projets_HW\z88dk\lib\config\..\..\/include/stdlib.h"
    30                          	C_LINE	31,"C:\Users\yannv\Documents\Projets_HW\z88dk\lib\config\..\..\/include/stdlib.h"
    31                          	C_LINE	34,"C:\Users\yannv\Documents\Projets_HW\z88dk\lib\config\..\..\/include/stdlib.h"
    34                          	C_LINE	35,"C:\Users\yannv\Documents\Projets_HW\z88dk\lib\config\..\..\/include/stdlib.h"
    35                          	C_LINE	38,"C:\Users\yannv\Documents\Projets_HW\z88dk\lib\config\..\..\/include/stdlib.h"
    38                          	C_LINE	39,"C:\Users\yannv\Documents\Projets_HW\z88dk\lib\config\..\..\/include/stdlib.h"
    39                          	C_LINE	43,"C:\Users\yannv\Documents\Projets_HW\z88dk\lib\config\..\..\/include/stdlib.h"
    43                          	C_LINE	44,"C:\Users\yannv\Documents\Projets_HW\z88dk\lib\config\..\..\/include/stdlib.h"
    44                          	C_LINE	47,"C:\Users\yannv\Documents\Projets_HW\z88dk\lib\config\..\..\/include/stdlib.h"
    47                          	C_LINE	48,"C:\Users\yannv\Documents\Projets_HW\z88dk\lib\config\..\..\/include/stdlib.h"
    48                          	C_LINE	52,"C:\Users\yannv\Documents\Projets_HW\z88dk\lib\config\..\..\/include/stdlib.h"
    52                          	C_LINE	53,"C:\Users\yannv\Documents\Projets_HW\z88dk\lib\config\..\..\/include/stdlib.h"
    53                          	C_LINE	92,"C:\Users\yannv\Documents\Projets_HW\z88dk\lib\config\..\..\/include/stdlib.h"
    92                          	C_LINE	93,"C:\Users\yannv\Documents\Projets_HW\z88dk\lib\config\..\..\/include/stdlib.h"
    93                          	C_LINE	0,"C:\Users\yannv\Documents\Projets_HW\z88dk\lib\config\..\..\/include/malloc.h"
C:\Users\yannv\Documents\Projets_HW\z88dk\lib\config\..\..\/include/malloc.h:
                                	C_LINE	69,"C:\Users\yannv\Documents\Projets_HW\z88dk\lib\config\..\..\/include/malloc.h"
    69                          	C_LINE	70,"C:\Users\yannv\Documents\Projets_HW\z88dk\lib\config\..\..\/include/malloc.h"
    70                          	C_LINE	71,"C:\Users\yannv\Documents\Projets_HW\z88dk\lib\config\..\..\/include/malloc.h"
    71                          	C_LINE	72,"C:\Users\yannv\Documents\Projets_HW\z88dk\lib\config\..\..\/include/malloc.h"
    72                          	C_LINE	73,"C:\Users\yannv\Documents\Projets_HW\z88dk\lib\config\..\..\/include/malloc.h"
    73                          	C_LINE	74,"C:\Users\yannv\Documents\Projets_HW\z88dk\lib\config\..\..\/include/malloc.h"
    74                          	C_LINE	75,"C:\Users\yannv\Documents\Projets_HW\z88dk\lib\config\..\..\/include/malloc.h"
    75                          	C_LINE	76,"C:\Users\yannv\Documents\Projets_HW\z88dk\lib\config\..\..\/include/malloc.h"
    76                          	C_LINE	77,"C:\Users\yannv\Documents\Projets_HW\z88dk\lib\config\..\..\/include/malloc.h"
    77                          	C_LINE	78,"C:\Users\yannv\Documents\Projets_HW\z88dk\lib\config\..\..\/include/malloc.h"
    78                          	C_LINE	79,"C:\Users\yannv\Documents\Projets_HW\z88dk\lib\config\..\..\/include/malloc.h"
    79                          	C_LINE	131,"C:\Users\yannv\Documents\Projets_HW\z88dk\lib\config\..\..\/include/malloc.h"
   131                          	C_LINE	132,"C:\Users\yannv\Documents\Projets_HW\z88dk\lib\config\..\..\/include/malloc.h"
   132                          	C_LINE	133,"C:\Users\yannv\Documents\Projets_HW\z88dk\lib\config\..\..\/include/malloc.h"
   133                          	C_LINE	134,"C:\Users\yannv\Documents\Projets_HW\z88dk\lib\config\..\..\/include/malloc.h"
   134                          	C_LINE	135,"C:\Users\yannv\Documents\Projets_HW\z88dk\lib\config\..\..\/include/malloc.h"
   135                          	C_LINE	136,"C:\Users\yannv\Documents\Projets_HW\z88dk\lib\config\..\..\/include/malloc.h"
   136                          	C_LINE	137,"C:\Users\yannv\Documents\Projets_HW\z88dk\lib\config\..\..\/include/malloc.h"
   137                          	C_LINE	138,"C:\Users\yannv\Documents\Projets_HW\z88dk\lib\config\..\..\/include/malloc.h"
   138                          	C_LINE	139,"C:\Users\yannv\Documents\Projets_HW\z88dk\lib\config\..\..\/include/malloc.h"
   139                          	C_LINE	140,"C:\Users\yannv\Documents\Projets_HW\z88dk\lib\config\..\..\/include/malloc.h"
   140                          	C_LINE	141,"C:\Users\yannv\Documents\Projets_HW\z88dk\lib\config\..\..\/include/malloc.h"
   141                          	C_LINE	142,"C:\Users\yannv\Documents\Projets_HW\z88dk\lib\config\..\..\/include/malloc.h"
   142                          	C_LINE	143,"C:\Users\yannv\Documents\Projets_HW\z88dk\lib\config\..\..\/include/malloc.h"
   143                          	C_LINE	107,"C:\Users\yannv\Documents\Projets_HW\z88dk\lib\config\..\..\/include/stdlib.h"
C:\Users\yannv\Documents\Projets_HW\z88dk\lib\config\..\..\/include/stdlib.h:
   107                          	C_LINE	120,"C:\Users\yannv\Documents\Projets_HW\z88dk\lib\config\..\..\/include/stdlib.h"
   120                          	C_LINE	121,"C:\Users\yannv\Documents\Projets_HW\z88dk\lib\config\..\..\/include/stdlib.h"
   121                          	C_LINE	126,"C:\Users\yannv\Documents\Projets_HW\z88dk\lib\config\..\..\/include/stdlib.h"
   126                          	C_LINE	127,"C:\Users\yannv\Documents\Projets_HW\z88dk\lib\config\..\..\/include/stdlib.h"
   127                          	C_LINE	128,"C:\Users\yannv\Documents\Projets_HW\z88dk\lib\config\..\..\/include/stdlib.h"
   128                          	C_LINE	129,"C:\Users\yannv\Documents\Projets_HW\z88dk\lib\config\..\..\/include/stdlib.h"
   129                          	C_LINE	134,"C:\Users\yannv\Documents\Projets_HW\z88dk\lib\config\..\..\/include/stdlib.h"
   134                          	C_LINE	137,"C:\Users\yannv\Documents\Projets_HW\z88dk\lib\config\..\..\/include/stdlib.h"
   137                          	C_LINE	138,"C:\Users\yannv\Documents\Projets_HW\z88dk\lib\config\..\..\/include/stdlib.h"
   138                          	C_LINE	139,"C:\Users\yannv\Documents\Projets_HW\z88dk\lib\config\..\..\/include/stdlib.h"
   139                          	C_LINE	140,"C:\Users\yannv\Documents\Projets_HW\z88dk\lib\config\..\..\/include/stdlib.h"
   140                          	C_LINE	141,"C:\Users\yannv\Documents\Projets_HW\z88dk\lib\config\..\..\/include/stdlib.h"
   141                          	C_LINE	153,"C:\Users\yannv\Documents\Projets_HW\z88dk\lib\config\..\..\/include/stdlib.h"
   153                          	C_LINE	154,"C:\Users\yannv\Documents\Projets_HW\z88dk\lib\config\..\..\/include/stdlib.h"
   154                          	C_LINE	155,"C:\Users\yannv\Documents\Projets_HW\z88dk\lib\config\..\..\/include/stdlib.h"
   155                          	C_LINE	156,"C:\Users\yannv\Documents\Projets_HW\z88dk\lib\config\..\..\/include/stdlib.h"
   156                          	C_LINE	160,"C:\Users\yannv\Documents\Projets_HW\z88dk\lib\config\..\..\/include/stdlib.h"
   160                          	C_LINE	161,"C:\Users\yannv\Documents\Projets_HW\z88dk\lib\config\..\..\/include/stdlib.h"
   161                          	C_LINE	163,"C:\Users\yannv\Documents\Projets_HW\z88dk\lib\config\..\..\/include/stdlib.h"
   163                          	C_LINE	164,"C:\Users\yannv\Documents\Projets_HW\z88dk\lib\config\..\..\/include/stdlib.h"
   164                          	C_LINE	189,"C:\Users\yannv\Documents\Projets_HW\z88dk\lib\config\..\..\/include/stdlib.h"
   189                          	C_LINE	197,"C:\Users\yannv\Documents\Projets_HW\z88dk\lib\config\..\..\/include/stdlib.h"
   197                          	C_LINE	205,"C:\Users\yannv\Documents\Projets_HW\z88dk\lib\config\..\..\/include/stdlib.h"
   205                          	C_LINE	213,"C:\Users\yannv\Documents\Projets_HW\z88dk\lib\config\..\..\/include/stdlib.h"
   213                          	C_LINE	221,"C:\Users\yannv\Documents\Projets_HW\z88dk\lib\config\..\..\/include/stdlib.h"
   221                          	C_LINE	222,"C:\Users\yannv\Documents\Projets_HW\z88dk\lib\config\..\..\/include/stdlib.h"
   222                          	C_LINE	226,"C:\Users\yannv\Documents\Projets_HW\z88dk\lib\config\..\..\/include/stdlib.h"
   226                          	C_LINE	227,"C:\Users\yannv\Documents\Projets_HW\z88dk\lib\config\..\..\/include/stdlib.h"
   227                          	C_LINE	231,"C:\Users\yannv\Documents\Projets_HW\z88dk\lib\config\..\..\/include/stdlib.h"
   231                          	C_LINE	232,"C:\Users\yannv\Documents\Projets_HW\z88dk\lib\config\..\..\/include/stdlib.h"
   232                          	C_LINE	236,"C:\Users\yannv\Documents\Projets_HW\z88dk\lib\config\..\..\/include/stdlib.h"
   236                          	C_LINE	237,"C:\Users\yannv\Documents\Projets_HW\z88dk\lib\config\..\..\/include/stdlib.h"
   237                          	C_LINE	246,"C:\Users\yannv\Documents\Projets_HW\z88dk\lib\config\..\..\/include/stdlib.h"
   246                          	C_LINE	247,"C:\Users\yannv\Documents\Projets_HW\z88dk\lib\config\..\..\/include/stdlib.h"
   247                          	C_LINE	249,"C:\Users\yannv\Documents\Projets_HW\z88dk\lib\config\..\..\/include/stdlib.h"
   249                          	C_LINE	264,"C:\Users\yannv\Documents\Projets_HW\z88dk\lib\config\..\..\/include/stdlib.h"
   264                          	C_LINE	265,"C:\Users\yannv\Documents\Projets_HW\z88dk\lib\config\..\..\/include/stdlib.h"
   265                          	C_LINE	266,"C:\Users\yannv\Documents\Projets_HW\z88dk\lib\config\..\..\/include/stdlib.h"
   266                          	C_LINE	279,"C:\Users\yannv\Documents\Projets_HW\z88dk\lib\config\..\..\/include/stdlib.h"
   279                          	C_LINE	283,"C:\Users\yannv\Documents\Projets_HW\z88dk\lib\config\..\..\/include/stdlib.h"
   283                          	C_LINE	284,"C:\Users\yannv\Documents\Projets_HW\z88dk\lib\config\..\..\/include/stdlib.h"
   284                          	C_LINE	285,"C:\Users\yannv\Documents\Projets_HW\z88dk\lib\config\..\..\/include/stdlib.h"
   285                          	C_LINE	286,"C:\Users\yannv\Documents\Projets_HW\z88dk\lib\config\..\..\/include/stdlib.h"
   286                          	C_LINE	287,"C:\Users\yannv\Documents\Projets_HW\z88dk\lib\config\..\..\/include/stdlib.h"
   287                          	C_LINE	288,"C:\Users\yannv\Documents\Projets_HW\z88dk\lib\config\..\..\/include/stdlib.h"
   288                          	C_LINE	303,"C:\Users\yannv\Documents\Projets_HW\z88dk\lib\config\..\..\/include/stdlib.h"
   303                          	C_LINE	305,"C:\Users\yannv\Documents\Projets_HW\z88dk\lib\config\..\..\/include/stdlib.h"
   305                          	C_LINE	306,"C:\Users\yannv\Documents\Projets_HW\z88dk\lib\config\..\..\/include/stdlib.h"
   306                          	C_LINE	322,"C:\Users\yannv\Documents\Projets_HW\z88dk\lib\config\..\..\/include/stdlib.h"
   322                          	C_LINE	323,"C:\Users\yannv\Documents\Projets_HW\z88dk\lib\config\..\..\/include/stdlib.h"
   323                          	C_LINE	328,"C:\Users\yannv\Documents\Projets_HW\z88dk\lib\config\..\..\/include/stdlib.h"
   328                          	C_LINE	331,"C:\Users\yannv\Documents\Projets_HW\z88dk\lib\config\..\..\/include/stdlib.h"
   331                          	C_LINE	7,"Test_DMA.c"
Test_DMA.c:
     7                          	C_LINE	0,"C:\Users\yannv\Documents\Projets_HW\z88dk\lib\config\..\..\/include/graphics.h"
C:\Users\yannv\Documents\Projets_HW\z88dk\lib\config\..\..\/include/graphics.h:
                                	C_LINE	23,"C:\Users\yannv\Documents\Projets_HW\z88dk\lib\config\..\..\/include/graphics.h"
    23                          	C_LINE	35,"C:\Users\yannv\Documents\Projets_HW\z88dk\lib\config\..\..\/include/graphics.h"
    35                          	C_LINE	39,"C:\Users\yannv\Documents\Projets_HW\z88dk\lib\config\..\..\/include/graphics.h"
    39                          	C_LINE	40,"C:\Users\yannv\Documents\Projets_HW\z88dk\lib\config\..\..\/include/graphics.h"
    40                          	C_LINE	44,"C:\Users\yannv\Documents\Projets_HW\z88dk\lib\config\..\..\/include/graphics.h"
    44                          	C_LINE	45,"C:\Users\yannv\Documents\Projets_HW\z88dk\lib\config\..\..\/include/graphics.h"
    45                          	C_LINE	49,"C:\Users\yannv\Documents\Projets_HW\z88dk\lib\config\..\..\/include/graphics.h"
    49                          	C_LINE	50,"C:\Users\yannv\Documents\Projets_HW\z88dk\lib\config\..\..\/include/graphics.h"
    50                          	C_LINE	55,"C:\Users\yannv\Documents\Projets_HW\z88dk\lib\config\..\..\/include/graphics.h"
    55                          	C_LINE	56,"C:\Users\yannv\Documents\Projets_HW\z88dk\lib\config\..\..\/include/graphics.h"
    56                          	C_LINE	60,"C:\Users\yannv\Documents\Projets_HW\z88dk\lib\config\..\..\/include/graphics.h"
    60                          	C_LINE	61,"C:\Users\yannv\Documents\Projets_HW\z88dk\lib\config\..\..\/include/graphics.h"
    61                          	C_LINE	66,"C:\Users\yannv\Documents\Projets_HW\z88dk\lib\config\..\..\/include/graphics.h"
    66                          	C_LINE	68,"C:\Users\yannv\Documents\Projets_HW\z88dk\lib\config\..\..\/include/graphics.h"
    68                          	C_LINE	73,"C:\Users\yannv\Documents\Projets_HW\z88dk\lib\config\..\..\/include/graphics.h"
    73                          	C_LINE	75,"C:\Users\yannv\Documents\Projets_HW\z88dk\lib\config\..\..\/include/graphics.h"
    75                          	C_LINE	80,"C:\Users\yannv\Documents\Projets_HW\z88dk\lib\config\..\..\/include/graphics.h"
    80                          	C_LINE	82,"C:\Users\yannv\Documents\Projets_HW\z88dk\lib\config\..\..\/include/graphics.h"
    82                          	C_LINE	87,"C:\Users\yannv\Documents\Projets_HW\z88dk\lib\config\..\..\/include/graphics.h"
    87                          	C_LINE	89,"C:\Users\yannv\Documents\Projets_HW\z88dk\lib\config\..\..\/include/graphics.h"
    89                          	C_LINE	94,"C:\Users\yannv\Documents\Projets_HW\z88dk\lib\config\..\..\/include/graphics.h"
    94                          	C_LINE	96,"C:\Users\yannv\Documents\Projets_HW\z88dk\lib\config\..\..\/include/graphics.h"
    96                          	C_LINE	101,"C:\Users\yannv\Documents\Projets_HW\z88dk\lib\config\..\..\/include/graphics.h"
   101                          	C_LINE	103,"C:\Users\yannv\Documents\Projets_HW\z88dk\lib\config\..\..\/include/graphics.h"
   103                          	C_LINE	108,"C:\Users\yannv\Documents\Projets_HW\z88dk\lib\config\..\..\/include/graphics.h"
   108                          	C_LINE	110,"C:\Users\yannv\Documents\Projets_HW\z88dk\lib\config\..\..\/include/graphics.h"
   110                          	C_LINE	115,"C:\Users\yannv\Documents\Projets_HW\z88dk\lib\config\..\..\/include/graphics.h"
   115                          	C_LINE	117,"C:\Users\yannv\Documents\Projets_HW\z88dk\lib\config\..\..\/include/graphics.h"
   117                          	C_LINE	122,"C:\Users\yannv\Documents\Projets_HW\z88dk\lib\config\..\..\/include/graphics.h"
   122                          	C_LINE	124,"C:\Users\yannv\Documents\Projets_HW\z88dk\lib\config\..\..\/include/graphics.h"
   124                          	C_LINE	130,"C:\Users\yannv\Documents\Projets_HW\z88dk\lib\config\..\..\/include/graphics.h"
   130                          	C_LINE	133,"C:\Users\yannv\Documents\Projets_HW\z88dk\lib\config\..\..\/include/graphics.h"
   133                          	C_LINE	136,"C:\Users\yannv\Documents\Projets_HW\z88dk\lib\config\..\..\/include/graphics.h"
   136                          	C_LINE	139,"C:\Users\yannv\Documents\Projets_HW\z88dk\lib\config\..\..\/include/graphics.h"
   139                          	C_LINE	140,"C:\Users\yannv\Documents\Projets_HW\z88dk\lib\config\..\..\/include/graphics.h"
   140                          	C_LINE	144,"C:\Users\yannv\Documents\Projets_HW\z88dk\lib\config\..\..\/include/graphics.h"
   144                          	C_LINE	145,"C:\Users\yannv\Documents\Projets_HW\z88dk\lib\config\..\..\/include/graphics.h"
   145                          	C_LINE	148,"C:\Users\yannv\Documents\Projets_HW\z88dk\lib\config\..\..\/include/graphics.h"
   148                          	C_LINE	149,"C:\Users\yannv\Documents\Projets_HW\z88dk\lib\config\..\..\/include/graphics.h"
   149                          	C_LINE	153,"C:\Users\yannv\Documents\Projets_HW\z88dk\lib\config\..\..\/include/graphics.h"
   153                          	C_LINE	154,"C:\Users\yannv\Documents\Projets_HW\z88dk\lib\config\..\..\/include/graphics.h"
   154                          	C_LINE	158,"C:\Users\yannv\Documents\Projets_HW\z88dk\lib\config\..\..\/include/graphics.h"
   158                          	C_LINE	159,"C:\Users\yannv\Documents\Projets_HW\z88dk\lib\config\..\..\/include/graphics.h"
   159                          	C_LINE	163,"C:\Users\yannv\Documents\Projets_HW\z88dk\lib\config\..\..\/include/graphics.h"
   163                          	C_LINE	164,"C:\Users\yannv\Documents\Projets_HW\z88dk\lib\config\..\..\/include/graphics.h"
   164                          	C_LINE	169,"C:\Users\yannv\Documents\Projets_HW\z88dk\lib\config\..\..\/include/graphics.h"
   169                          	C_LINE	171,"C:\Users\yannv\Documents\Projets_HW\z88dk\lib\config\..\..\/include/graphics.h"
   171                          	C_LINE	176,"C:\Users\yannv\Documents\Projets_HW\z88dk\lib\config\..\..\/include/graphics.h"
   176                          	C_LINE	178,"C:\Users\yannv\Documents\Projets_HW\z88dk\lib\config\..\..\/include/graphics.h"
   178                          	C_LINE	183,"C:\Users\yannv\Documents\Projets_HW\z88dk\lib\config\..\..\/include/graphics.h"
   183                          	C_LINE	185,"C:\Users\yannv\Documents\Projets_HW\z88dk\lib\config\..\..\/include/graphics.h"
   185                          	C_LINE	190,"C:\Users\yannv\Documents\Projets_HW\z88dk\lib\config\..\..\/include/graphics.h"
   190                          	C_LINE	194,"C:\Users\yannv\Documents\Projets_HW\z88dk\lib\config\..\..\/include/graphics.h"
   194                          	C_LINE	195,"C:\Users\yannv\Documents\Projets_HW\z88dk\lib\config\..\..\/include/graphics.h"
   195                          	C_LINE	199,"C:\Users\yannv\Documents\Projets_HW\z88dk\lib\config\..\..\/include/graphics.h"
   199                          	C_LINE	200,"C:\Users\yannv\Documents\Projets_HW\z88dk\lib\config\..\..\/include/graphics.h"
   200                          	C_LINE	204,"C:\Users\yannv\Documents\Projets_HW\z88dk\lib\config\..\..\/include/graphics.h"
   204                          	C_LINE	205,"C:\Users\yannv\Documents\Projets_HW\z88dk\lib\config\..\..\/include/graphics.h"
   205                          	C_LINE	211,"C:\Users\yannv\Documents\Projets_HW\z88dk\lib\config\..\..\/include/graphics.h"
   211                          	C_LINE	212,"C:\Users\yannv\Documents\Projets_HW\z88dk\lib\config\..\..\/include/graphics.h"
   212                          	C_LINE	213,"C:\Users\yannv\Documents\Projets_HW\z88dk\lib\config\..\..\/include/graphics.h"
   213                          	C_LINE	216,"C:\Users\yannv\Documents\Projets_HW\z88dk\lib\config\..\..\/include/graphics.h"
   216                          	C_LINE	217,"C:\Users\yannv\Documents\Projets_HW\z88dk\lib\config\..\..\/include/graphics.h"
   217                          	C_LINE	224,"C:\Users\yannv\Documents\Projets_HW\z88dk\lib\config\..\..\/include/graphics.h"
   224                          	C_LINE	235,"C:\Users\yannv\Documents\Projets_HW\z88dk\lib\config\..\..\/include/graphics.h"
   235                          	C_LINE	237,"C:\Users\yannv\Documents\Projets_HW\z88dk\lib\config\..\..\/include/graphics.h"
   237                          	C_LINE	239,"C:\Users\yannv\Documents\Projets_HW\z88dk\lib\config\..\..\/include/graphics.h"
   239                          	C_LINE	241,"C:\Users\yannv\Documents\Projets_HW\z88dk\lib\config\..\..\/include/graphics.h"
   241                          	C_LINE	243,"C:\Users\yannv\Documents\Projets_HW\z88dk\lib\config\..\..\/include/graphics.h"
   243                          	C_LINE	245,"C:\Users\yannv\Documents\Projets_HW\z88dk\lib\config\..\..\/include/graphics.h"
   245                          	C_LINE	247,"C:\Users\yannv\Documents\Projets_HW\z88dk\lib\config\..\..\/include/graphics.h"
   247                          	C_LINE	251,"C:\Users\yannv\Documents\Projets_HW\z88dk\lib\config\..\..\/include/graphics.h"
   251                          	C_LINE	265,"C:\Users\yannv\Documents\Projets_HW\z88dk\lib\config\..\..\/include/graphics.h"
   265                          	C_LINE	267,"C:\Users\yannv\Documents\Projets_HW\z88dk\lib\config\..\..\/include/graphics.h"
   267                          	C_LINE	269,"C:\Users\yannv\Documents\Projets_HW\z88dk\lib\config\..\..\/include/graphics.h"
   269                          	C_LINE	271,"C:\Users\yannv\Documents\Projets_HW\z88dk\lib\config\..\..\/include/graphics.h"
   271                          	C_LINE	277,"C:\Users\yannv\Documents\Projets_HW\z88dk\lib\config\..\..\/include/graphics.h"
   277                          	C_LINE	280,"C:\Users\yannv\Documents\Projets_HW\z88dk\lib\config\..\..\/include/graphics.h"
   280                          	C_LINE	281,"C:\Users\yannv\Documents\Projets_HW\z88dk\lib\config\..\..\/include/graphics.h"
   281                          	C_LINE	285,"C:\Users\yannv\Documents\Projets_HW\z88dk\lib\config\..\..\/include/graphics.h"
   285                          	C_LINE	286,"C:\Users\yannv\Documents\Projets_HW\z88dk\lib\config\..\..\/include/graphics.h"
   286                          	C_LINE	8,"Test_DMA.c"
Test_DMA.c:
     8                          	C_LINE	0,"C:\Users\yannv\Documents\Projets_HW\z88dk\lib\config\..\..\/include/string.h"
C:\Users\yannv\Documents\Projets_HW\z88dk\lib\config\..\..\/include/string.h:
                                	C_LINE	7,"C:\Users\yannv\Documents\Projets_HW\z88dk\lib\config\..\..\/include/string.h"
     7                          	C_LINE	8,"C:\Users\yannv\Documents\Projets_HW\z88dk\lib\config\..\..\/include/string.h"
     8                          	C_LINE	12,"C:\Users\yannv\Documents\Projets_HW\z88dk\lib\config\..\..\/include/string.h"
    12                          	C_LINE	14,"C:\Users\yannv\Documents\Projets_HW\z88dk\lib\config\..\..\/include/string.h"
    14                          	C_LINE	19,"C:\Users\yannv\Documents\Projets_HW\z88dk\lib\config\..\..\/include/string.h"
    19                          	C_LINE	20,"C:\Users\yannv\Documents\Projets_HW\z88dk\lib\config\..\..\/include/string.h"
    20                          	C_LINE	24,"C:\Users\yannv\Documents\Projets_HW\z88dk\lib\config\..\..\/include/string.h"
    24                          	C_LINE	25,"C:\Users\yannv\Documents\Projets_HW\z88dk\lib\config\..\..\/include/string.h"
    25                          	C_LINE	29,"C:\Users\yannv\Documents\Projets_HW\z88dk\lib\config\..\..\/include/string.h"
    29                          	C_LINE	30,"C:\Users\yannv\Documents\Projets_HW\z88dk\lib\config\..\..\/include/string.h"
    30                          	C_LINE	34,"C:\Users\yannv\Documents\Projets_HW\z88dk\lib\config\..\..\/include/string.h"
    34                          	C_LINE	35,"C:\Users\yannv\Documents\Projets_HW\z88dk\lib\config\..\..\/include/string.h"
    35                          	C_LINE	39,"C:\Users\yannv\Documents\Projets_HW\z88dk\lib\config\..\..\/include/string.h"
    39                          	C_LINE	41,"C:\Users\yannv\Documents\Projets_HW\z88dk\lib\config\..\..\/include/string.h"
    41                          	C_LINE	46,"C:\Users\yannv\Documents\Projets_HW\z88dk\lib\config\..\..\/include/string.h"
    46                          	C_LINE	47,"C:\Users\yannv\Documents\Projets_HW\z88dk\lib\config\..\..\/include/string.h"
    47                          	C_LINE	52,"C:\Users\yannv\Documents\Projets_HW\z88dk\lib\config\..\..\/include/string.h"
    52                          	C_LINE	53,"C:\Users\yannv\Documents\Projets_HW\z88dk\lib\config\..\..\/include/string.h"
    53                          	C_LINE	57,"C:\Users\yannv\Documents\Projets_HW\z88dk\lib\config\..\..\/include/string.h"
    57                          	C_LINE	59,"C:\Users\yannv\Documents\Projets_HW\z88dk\lib\config\..\..\/include/string.h"
    59                          	C_LINE	64,"C:\Users\yannv\Documents\Projets_HW\z88dk\lib\config\..\..\/include/string.h"
    64                          	C_LINE	65,"C:\Users\yannv\Documents\Projets_HW\z88dk\lib\config\..\..\/include/string.h"
    65                          	C_LINE	69,"C:\Users\yannv\Documents\Projets_HW\z88dk\lib\config\..\..\/include/string.h"
    69                          	C_LINE	72,"C:\Users\yannv\Documents\Projets_HW\z88dk\lib\config\..\..\/include/string.h"
    72                          	C_LINE	75,"C:\Users\yannv\Documents\Projets_HW\z88dk\lib\config\..\..\/include/string.h"
    75                          	C_LINE	78,"C:\Users\yannv\Documents\Projets_HW\z88dk\lib\config\..\..\/include/string.h"
    78                          	C_LINE	79,"C:\Users\yannv\Documents\Projets_HW\z88dk\lib\config\..\..\/include/string.h"
    79                          	C_LINE	83,"C:\Users\yannv\Documents\Projets_HW\z88dk\lib\config\..\..\/include/string.h"
    83                          	C_LINE	85,"C:\Users\yannv\Documents\Projets_HW\z88dk\lib\config\..\..\/include/string.h"
    85                          	C_LINE	90,"C:\Users\yannv\Documents\Projets_HW\z88dk\lib\config\..\..\/include/string.h"
    90                          	C_LINE	92,"C:\Users\yannv\Documents\Projets_HW\z88dk\lib\config\..\..\/include/string.h"
    92                          	C_LINE	97,"C:\Users\yannv\Documents\Projets_HW\z88dk\lib\config\..\..\/include/string.h"
    97                          	C_LINE	99,"C:\Users\yannv\Documents\Projets_HW\z88dk\lib\config\..\..\/include/string.h"
    99                          	C_LINE	104,"C:\Users\yannv\Documents\Projets_HW\z88dk\lib\config\..\..\/include/string.h"
   104                          	C_LINE	105,"C:\Users\yannv\Documents\Projets_HW\z88dk\lib\config\..\..\/include/string.h"
   105                          	C_LINE	109,"C:\Users\yannv\Documents\Projets_HW\z88dk\lib\config\..\..\/include/string.h"
   109                          	C_LINE	111,"C:\Users\yannv\Documents\Projets_HW\z88dk\lib\config\..\..\/include/string.h"
   111                          	C_LINE	116,"C:\Users\yannv\Documents\Projets_HW\z88dk\lib\config\..\..\/include/string.h"
   116                          	C_LINE	118,"C:\Users\yannv\Documents\Projets_HW\z88dk\lib\config\..\..\/include/string.h"
   118                          	C_LINE	123,"C:\Users\yannv\Documents\Projets_HW\z88dk\lib\config\..\..\/include/string.h"
   123                          	C_LINE	125,"C:\Users\yannv\Documents\Projets_HW\z88dk\lib\config\..\..\/include/string.h"
   125                          	C_LINE	133,"C:\Users\yannv\Documents\Projets_HW\z88dk\lib\config\..\..\/include/string.h"
   133                          	C_LINE	135,"C:\Users\yannv\Documents\Projets_HW\z88dk\lib\config\..\..\/include/string.h"
   135                          	C_LINE	139,"C:\Users\yannv\Documents\Projets_HW\z88dk\lib\config\..\..\/include/string.h"
   139                          	C_LINE	141,"C:\Users\yannv\Documents\Projets_HW\z88dk\lib\config\..\..\/include/string.h"
   141                          	C_LINE	145,"C:\Users\yannv\Documents\Projets_HW\z88dk\lib\config\..\..\/include/string.h"
   145                          	C_LINE	146,"C:\Users\yannv\Documents\Projets_HW\z88dk\lib\config\..\..\/include/string.h"
   146                          	C_LINE	150,"C:\Users\yannv\Documents\Projets_HW\z88dk\lib\config\..\..\/include/string.h"
   150                          	C_LINE	152,"C:\Users\yannv\Documents\Projets_HW\z88dk\lib\config\..\..\/include/string.h"
   152                          	C_LINE	157,"C:\Users\yannv\Documents\Projets_HW\z88dk\lib\config\..\..\/include/string.h"
   157                          	C_LINE	158,"C:\Users\yannv\Documents\Projets_HW\z88dk\lib\config\..\..\/include/string.h"
   158                          	C_LINE	162,"C:\Users\yannv\Documents\Projets_HW\z88dk\lib\config\..\..\/include/string.h"
   162                          	C_LINE	163,"C:\Users\yannv\Documents\Projets_HW\z88dk\lib\config\..\..\/include/string.h"
   163                          	C_LINE	167,"C:\Users\yannv\Documents\Projets_HW\z88dk\lib\config\..\..\/include/string.h"
   167                          	C_LINE	168,"C:\Users\yannv\Documents\Projets_HW\z88dk\lib\config\..\..\/include/string.h"
   168                          	C_LINE	172,"C:\Users\yannv\Documents\Projets_HW\z88dk\lib\config\..\..\/include/string.h"
   172                          	C_LINE	173,"C:\Users\yannv\Documents\Projets_HW\z88dk\lib\config\..\..\/include/string.h"
   173                          	C_LINE	177,"C:\Users\yannv\Documents\Projets_HW\z88dk\lib\config\..\..\/include/string.h"
   177                          	C_LINE	178,"C:\Users\yannv\Documents\Projets_HW\z88dk\lib\config\..\..\/include/string.h"
   178                          	C_LINE	182,"C:\Users\yannv\Documents\Projets_HW\z88dk\lib\config\..\..\/include/string.h"
   182                          	C_LINE	183,"C:\Users\yannv\Documents\Projets_HW\z88dk\lib\config\..\..\/include/string.h"
   183                          	C_LINE	187,"C:\Users\yannv\Documents\Projets_HW\z88dk\lib\config\..\..\/include/string.h"
   187                          	C_LINE	188,"C:\Users\yannv\Documents\Projets_HW\z88dk\lib\config\..\..\/include/string.h"
   188                          	C_LINE	192,"C:\Users\yannv\Documents\Projets_HW\z88dk\lib\config\..\..\/include/string.h"
   192                          	C_LINE	193,"C:\Users\yannv\Documents\Projets_HW\z88dk\lib\config\..\..\/include/string.h"
   193                          	C_LINE	197,"C:\Users\yannv\Documents\Projets_HW\z88dk\lib\config\..\..\/include/string.h"
   197                          	C_LINE	200,"C:\Users\yannv\Documents\Projets_HW\z88dk\lib\config\..\..\/include/string.h"
   200                          	C_LINE	203,"C:\Users\yannv\Documents\Projets_HW\z88dk\lib\config\..\..\/include/string.h"
   203                          	C_LINE	204,"C:\Users\yannv\Documents\Projets_HW\z88dk\lib\config\..\..\/include/string.h"
   204                          	C_LINE	208,"C:\Users\yannv\Documents\Projets_HW\z88dk\lib\config\..\..\/include/string.h"
   208                          	C_LINE	210,"C:\Users\yannv\Documents\Projets_HW\z88dk\lib\config\..\..\/include/string.h"
   210                          	C_LINE	215,"C:\Users\yannv\Documents\Projets_HW\z88dk\lib\config\..\..\/include/string.h"
   215                          	C_LINE	217,"C:\Users\yannv\Documents\Projets_HW\z88dk\lib\config\..\..\/include/string.h"
   217                          	C_LINE	222,"C:\Users\yannv\Documents\Projets_HW\z88dk\lib\config\..\..\/include/string.h"
   222                          	C_LINE	225,"C:\Users\yannv\Documents\Projets_HW\z88dk\lib\config\..\..\/include/string.h"
   225                          	C_LINE	228,"C:\Users\yannv\Documents\Projets_HW\z88dk\lib\config\..\..\/include/string.h"
   228                          	C_LINE	230,"C:\Users\yannv\Documents\Projets_HW\z88dk\lib\config\..\..\/include/string.h"
   230                          	C_LINE	235,"C:\Users\yannv\Documents\Projets_HW\z88dk\lib\config\..\..\/include/string.h"
   235                          	C_LINE	237,"C:\Users\yannv\Documents\Projets_HW\z88dk\lib\config\..\..\/include/string.h"
   237                          	C_LINE	242,"C:\Users\yannv\Documents\Projets_HW\z88dk\lib\config\..\..\/include/string.h"
   242                          	C_LINE	244,"C:\Users\yannv\Documents\Projets_HW\z88dk\lib\config\..\..\/include/string.h"
   244                          	C_LINE	249,"C:\Users\yannv\Documents\Projets_HW\z88dk\lib\config\..\..\/include/string.h"
   249                          	C_LINE	251,"C:\Users\yannv\Documents\Projets_HW\z88dk\lib\config\..\..\/include/string.h"
   251                          	C_LINE	256,"C:\Users\yannv\Documents\Projets_HW\z88dk\lib\config\..\..\/include/string.h"
   256                          	C_LINE	258,"C:\Users\yannv\Documents\Projets_HW\z88dk\lib\config\..\..\/include/string.h"
   258                          	C_LINE	263,"C:\Users\yannv\Documents\Projets_HW\z88dk\lib\config\..\..\/include/string.h"
   263                          	C_LINE	264,"C:\Users\yannv\Documents\Projets_HW\z88dk\lib\config\..\..\/include/string.h"
   264                          	C_LINE	268,"C:\Users\yannv\Documents\Projets_HW\z88dk\lib\config\..\..\/include/string.h"
   268                          	C_LINE	269,"C:\Users\yannv\Documents\Projets_HW\z88dk\lib\config\..\..\/include/string.h"
   269                          	C_LINE	273,"C:\Users\yannv\Documents\Projets_HW\z88dk\lib\config\..\..\/include/string.h"
   273                          	C_LINE	274,"C:\Users\yannv\Documents\Projets_HW\z88dk\lib\config\..\..\/include/string.h"
   274                          	C_LINE	278,"C:\Users\yannv\Documents\Projets_HW\z88dk\lib\config\..\..\/include/string.h"
   278                          	C_LINE	279,"C:\Users\yannv\Documents\Projets_HW\z88dk\lib\config\..\..\/include/string.h"
   279                          	C_LINE	283,"C:\Users\yannv\Documents\Projets_HW\z88dk\lib\config\..\..\/include/string.h"
   283                          	C_LINE	284,"C:\Users\yannv\Documents\Projets_HW\z88dk\lib\config\..\..\/include/string.h"
   284                          	C_LINE	288,"C:\Users\yannv\Documents\Projets_HW\z88dk\lib\config\..\..\/include/string.h"
   288                          	C_LINE	289,"C:\Users\yannv\Documents\Projets_HW\z88dk\lib\config\..\..\/include/string.h"
   289                          	C_LINE	293,"C:\Users\yannv\Documents\Projets_HW\z88dk\lib\config\..\..\/include/string.h"
   293                          	C_LINE	296,"C:\Users\yannv\Documents\Projets_HW\z88dk\lib\config\..\..\/include/string.h"
   296                          	C_LINE	297,"C:\Users\yannv\Documents\Projets_HW\z88dk\lib\config\..\..\/include/string.h"
   297                          	C_LINE	301,"C:\Users\yannv\Documents\Projets_HW\z88dk\lib\config\..\..\/include/string.h"
   301                          	C_LINE	304,"C:\Users\yannv\Documents\Projets_HW\z88dk\lib\config\..\..\/include/string.h"
   304                          	C_LINE	305,"C:\Users\yannv\Documents\Projets_HW\z88dk\lib\config\..\..\/include/string.h"
   305                          	C_LINE	309,"C:\Users\yannv\Documents\Projets_HW\z88dk\lib\config\..\..\/include/string.h"
   309                          	C_LINE	310,"C:\Users\yannv\Documents\Projets_HW\z88dk\lib\config\..\..\/include/string.h"
   310                          	C_LINE	314,"C:\Users\yannv\Documents\Projets_HW\z88dk\lib\config\..\..\/include/string.h"
   314                          	C_LINE	315,"C:\Users\yannv\Documents\Projets_HW\z88dk\lib\config\..\..\/include/string.h"
   315                          	C_LINE	319,"C:\Users\yannv\Documents\Projets_HW\z88dk\lib\config\..\..\/include/string.h"
   319                          	C_LINE	322,"C:\Users\yannv\Documents\Projets_HW\z88dk\lib\config\..\..\/include/string.h"
   322                          	C_LINE	323,"C:\Users\yannv\Documents\Projets_HW\z88dk\lib\config\..\..\/include/string.h"
   323                          	C_LINE	327,"C:\Users\yannv\Documents\Projets_HW\z88dk\lib\config\..\..\/include/string.h"
   327                          	C_LINE	329,"C:\Users\yannv\Documents\Projets_HW\z88dk\lib\config\..\..\/include/string.h"
   329                          	C_LINE	334,"C:\Users\yannv\Documents\Projets_HW\z88dk\lib\config\..\..\/include/string.h"
   334                          	C_LINE	337,"C:\Users\yannv\Documents\Projets_HW\z88dk\lib\config\..\..\/include/string.h"
   337                          	C_LINE	339,"C:\Users\yannv\Documents\Projets_HW\z88dk\lib\config\..\..\/include/string.h"
   339                          	C_LINE	343,"C:\Users\yannv\Documents\Projets_HW\z88dk\lib\config\..\..\/include/string.h"
   343                          	C_LINE	344,"C:\Users\yannv\Documents\Projets_HW\z88dk\lib\config\..\..\/include/string.h"
   344                          	C_LINE	348,"C:\Users\yannv\Documents\Projets_HW\z88dk\lib\config\..\..\/include/string.h"
   348                          	C_LINE	349,"C:\Users\yannv\Documents\Projets_HW\z88dk\lib\config\..\..\/include/string.h"
   349                          	C_LINE	352,"C:\Users\yannv\Documents\Projets_HW\z88dk\lib\config\..\..\/include/string.h"
   352                          	C_LINE	353,"C:\Users\yannv\Documents\Projets_HW\z88dk\lib\config\..\..\/include/string.h"
   353                          	C_LINE	410,"C:\Users\yannv\Documents\Projets_HW\z88dk\lib\config\..\..\/include/string.h"
   410                          	C_LINE	416,"C:\Users\yannv\Documents\Projets_HW\z88dk\lib\config\..\..\/include/string.h"
   416                          	C_LINE	422,"C:\Users\yannv\Documents\Projets_HW\z88dk\lib\config\..\..\/include/string.h"
   422                          	C_LINE	428,"C:\Users\yannv\Documents\Projets_HW\z88dk\lib\config\..\..\/include/string.h"
   428                          	C_LINE	9,"Test_DMA.c"
Test_DMA.c:
     9                          	C_LINE	0,"C:\Users\yannv\Documents\Projets_HW\z88dk\lib\config\..\..\/include/sound.h"
C:\Users\yannv\Documents\Projets_HW\z88dk\lib\config\..\..\/include/sound.h:
                                	C_LINE	23,"C:\Users\yannv\Documents\Projets_HW\z88dk\lib\config\..\..\/include/sound.h"
    23                          	C_LINE	24,"C:\Users\yannv\Documents\Projets_HW\z88dk\lib\config\..\..\/include/sound.h"
    24                          	C_LINE	25,"C:\Users\yannv\Documents\Projets_HW\z88dk\lib\config\..\..\/include/sound.h"
    25                          	C_LINE	26,"C:\Users\yannv\Documents\Projets_HW\z88dk\lib\config\..\..\/include/sound.h"
    26                          	C_LINE	27,"C:\Users\yannv\Documents\Projets_HW\z88dk\lib\config\..\..\/include/sound.h"
    27                          	C_LINE	30,"C:\Users\yannv\Documents\Projets_HW\z88dk\lib\config\..\..\/include/sound.h"
    30                          	C_LINE	31,"C:\Users\yannv\Documents\Projets_HW\z88dk\lib\config\..\..\/include/sound.h"
    31                          	C_LINE	32,"C:\Users\yannv\Documents\Projets_HW\z88dk\lib\config\..\..\/include/sound.h"
    32                          	C_LINE	33,"C:\Users\yannv\Documents\Projets_HW\z88dk\lib\config\..\..\/include/sound.h"
    33                          	C_LINE	34,"C:\Users\yannv\Documents\Projets_HW\z88dk\lib\config\..\..\/include/sound.h"
    34                          	C_LINE	35,"C:\Users\yannv\Documents\Projets_HW\z88dk\lib\config\..\..\/include/sound.h"
    35                          	C_LINE	36,"C:\Users\yannv\Documents\Projets_HW\z88dk\lib\config\..\..\/include/sound.h"
    36                          	C_LINE	39,"C:\Users\yannv\Documents\Projets_HW\z88dk\lib\config\..\..\/include/sound.h"
    39                          	C_LINE	42,"C:\Users\yannv\Documents\Projets_HW\z88dk\lib\config\..\..\/include/sound.h"
    42                          	C_LINE	43,"C:\Users\yannv\Documents\Projets_HW\z88dk\lib\config\..\..\/include/sound.h"
    43                          	C_LINE	47,"C:\Users\yannv\Documents\Projets_HW\z88dk\lib\config\..\..\/include/sound.h"
    47                          	C_LINE	48,"C:\Users\yannv\Documents\Projets_HW\z88dk\lib\config\..\..\/include/sound.h"
    48                          	C_LINE	52,"C:\Users\yannv\Documents\Projets_HW\z88dk\lib\config\..\..\/include/sound.h"
    52                          	C_LINE	53,"C:\Users\yannv\Documents\Projets_HW\z88dk\lib\config\..\..\/include/sound.h"
    53                          	C_LINE	57,"C:\Users\yannv\Documents\Projets_HW\z88dk\lib\config\..\..\/include/sound.h"
    57                          	C_LINE	60,"C:\Users\yannv\Documents\Projets_HW\z88dk\lib\config\..\..\/include/sound.h"
    60                          	C_LINE	63,"C:\Users\yannv\Documents\Projets_HW\z88dk\lib\config\..\..\/include/sound.h"
    63                          	C_LINE	66,"C:\Users\yannv\Documents\Projets_HW\z88dk\lib\config\..\..\/include/sound.h"
    66                          	C_LINE	69,"C:\Users\yannv\Documents\Projets_HW\z88dk\lib\config\..\..\/include/sound.h"
    69                          	C_LINE	70,"C:\Users\yannv\Documents\Projets_HW\z88dk\lib\config\..\..\/include/sound.h"
    70                          	C_LINE	71,"C:\Users\yannv\Documents\Projets_HW\z88dk\lib\config\..\..\/include/sound.h"
    71                          	C_LINE	72,"C:\Users\yannv\Documents\Projets_HW\z88dk\lib\config\..\..\/include/sound.h"
    72                          	C_LINE	75,"C:\Users\yannv\Documents\Projets_HW\z88dk\lib\config\..\..\/include/sound.h"
    75                          	C_LINE	78,"C:\Users\yannv\Documents\Projets_HW\z88dk\lib\config\..\..\/include/sound.h"
    78                          	C_LINE	108,"C:\Users\yannv\Documents\Projets_HW\z88dk\lib\config\..\..\/include/sound.h"
   108                          	C_LINE	263,"C:\Users\yannv\Documents\Projets_HW\z88dk\lib\config\..\..\/include/sound.h"
   263                          	C_LINE	267,"C:\Users\yannv\Documents\Projets_HW\z88dk\lib\config\..\..\/include/sound.h"
   267                          	C_LINE	268,"C:\Users\yannv\Documents\Projets_HW\z88dk\lib\config\..\..\/include/sound.h"
   268                          	C_LINE	269,"C:\Users\yannv\Documents\Projets_HW\z88dk\lib\config\..\..\/include/sound.h"
   269                          	C_LINE	270,"C:\Users\yannv\Documents\Projets_HW\z88dk\lib\config\..\..\/include/sound.h"
   270                          	C_LINE	271,"C:\Users\yannv\Documents\Projets_HW\z88dk\lib\config\..\..\/include/sound.h"
   271                          	C_LINE	272,"C:\Users\yannv\Documents\Projets_HW\z88dk\lib\config\..\..\/include/sound.h"
   272                          	C_LINE	273,"C:\Users\yannv\Documents\Projets_HW\z88dk\lib\config\..\..\/include/sound.h"
   273                          	C_LINE	274,"C:\Users\yannv\Documents\Projets_HW\z88dk\lib\config\..\..\/include/sound.h"
   274                          	C_LINE	275,"C:\Users\yannv\Documents\Projets_HW\z88dk\lib\config\..\..\/include/sound.h"
   275                          	C_LINE	276,"C:\Users\yannv\Documents\Projets_HW\z88dk\lib\config\..\..\/include/sound.h"
   276                          	C_LINE	277,"C:\Users\yannv\Documents\Projets_HW\z88dk\lib\config\..\..\/include/sound.h"
   277                          	C_LINE	278,"C:\Users\yannv\Documents\Projets_HW\z88dk\lib\config\..\..\/include/sound.h"
   278                          	C_LINE	279,"C:\Users\yannv\Documents\Projets_HW\z88dk\lib\config\..\..\/include/sound.h"
   279                          	C_LINE	280,"C:\Users\yannv\Documents\Projets_HW\z88dk\lib\config\..\..\/include/sound.h"
   280                          	C_LINE	281,"C:\Users\yannv\Documents\Projets_HW\z88dk\lib\config\..\..\/include/sound.h"
   281                          	C_LINE	282,"C:\Users\yannv\Documents\Projets_HW\z88dk\lib\config\..\..\/include/sound.h"
   282                          	C_LINE	283,"C:\Users\yannv\Documents\Projets_HW\z88dk\lib\config\..\..\/include/sound.h"
   283                          	C_LINE	284,"C:\Users\yannv\Documents\Projets_HW\z88dk\lib\config\..\..\/include/sound.h"
   284                          	C_LINE	285,"C:\Users\yannv\Documents\Projets_HW\z88dk\lib\config\..\..\/include/sound.h"
   285                          	C_LINE	286,"C:\Users\yannv\Documents\Projets_HW\z88dk\lib\config\..\..\/include/sound.h"
   286                          	C_LINE	287,"C:\Users\yannv\Documents\Projets_HW\z88dk\lib\config\..\..\/include/sound.h"
   287                          	C_LINE	288,"C:\Users\yannv\Documents\Projets_HW\z88dk\lib\config\..\..\/include/sound.h"
   288                          	C_LINE	289,"C:\Users\yannv\Documents\Projets_HW\z88dk\lib\config\..\..\/include/sound.h"
   289                          	C_LINE	290,"C:\Users\yannv\Documents\Projets_HW\z88dk\lib\config\..\..\/include/sound.h"
   290                          	C_LINE	291,"C:\Users\yannv\Documents\Projets_HW\z88dk\lib\config\..\..\/include/sound.h"
   291                          	C_LINE	292,"C:\Users\yannv\Documents\Projets_HW\z88dk\lib\config\..\..\/include/sound.h"
   292                          	C_LINE	293,"C:\Users\yannv\Documents\Projets_HW\z88dk\lib\config\..\..\/include/sound.h"
   293                          	C_LINE	294,"C:\Users\yannv\Documents\Projets_HW\z88dk\lib\config\..\..\/include/sound.h"
   294                          	C_LINE	295,"C:\Users\yannv\Documents\Projets_HW\z88dk\lib\config\..\..\/include/sound.h"
   295                          	C_LINE	296,"C:\Users\yannv\Documents\Projets_HW\z88dk\lib\config\..\..\/include/sound.h"
   296                          	C_LINE	297,"C:\Users\yannv\Documents\Projets_HW\z88dk\lib\config\..\..\/include/sound.h"
   297                          	C_LINE	298,"C:\Users\yannv\Documents\Projets_HW\z88dk\lib\config\..\..\/include/sound.h"
   298                          	C_LINE	299,"C:\Users\yannv\Documents\Projets_HW\z88dk\lib\config\..\..\/include/sound.h"
   299                          	C_LINE	300,"C:\Users\yannv\Documents\Projets_HW\z88dk\lib\config\..\..\/include/sound.h"
   300                          	C_LINE	301,"C:\Users\yannv\Documents\Projets_HW\z88dk\lib\config\..\..\/include/sound.h"
   301                          	C_LINE	302,"C:\Users\yannv\Documents\Projets_HW\z88dk\lib\config\..\..\/include/sound.h"
   302                          	C_LINE	303,"C:\Users\yannv\Documents\Projets_HW\z88dk\lib\config\..\..\/include/sound.h"
   303                          	C_LINE	304,"C:\Users\yannv\Documents\Projets_HW\z88dk\lib\config\..\..\/include/sound.h"
   304                          	C_LINE	305,"C:\Users\yannv\Documents\Projets_HW\z88dk\lib\config\..\..\/include/sound.h"
   305                          	C_LINE	306,"C:\Users\yannv\Documents\Projets_HW\z88dk\lib\config\..\..\/include/sound.h"
   306                          	C_LINE	307,"C:\Users\yannv\Documents\Projets_HW\z88dk\lib\config\..\..\/include/sound.h"
   307                          	C_LINE	308,"C:\Users\yannv\Documents\Projets_HW\z88dk\lib\config\..\..\/include/sound.h"
   308                          	C_LINE	309,"C:\Users\yannv\Documents\Projets_HW\z88dk\lib\config\..\..\/include/sound.h"
   309                          	C_LINE	310,"C:\Users\yannv\Documents\Projets_HW\z88dk\lib\config\..\..\/include/sound.h"
   310                          	C_LINE	311,"C:\Users\yannv\Documents\Projets_HW\z88dk\lib\config\..\..\/include/sound.h"
   311                          	C_LINE	312,"C:\Users\yannv\Documents\Projets_HW\z88dk\lib\config\..\..\/include/sound.h"
   312                          	C_LINE	313,"C:\Users\yannv\Documents\Projets_HW\z88dk\lib\config\..\..\/include/sound.h"
   313                          	C_LINE	314,"C:\Users\yannv\Documents\Projets_HW\z88dk\lib\config\..\..\/include/sound.h"
   314                          	C_LINE	315,"C:\Users\yannv\Documents\Projets_HW\z88dk\lib\config\..\..\/include/sound.h"
   315                          	C_LINE	316,"C:\Users\yannv\Documents\Projets_HW\z88dk\lib\config\..\..\/include/sound.h"
   316                          	C_LINE	317,"C:\Users\yannv\Documents\Projets_HW\z88dk\lib\config\..\..\/include/sound.h"
   317                          	C_LINE	318,"C:\Users\yannv\Documents\Projets_HW\z88dk\lib\config\..\..\/include/sound.h"
   318                          	C_LINE	319,"C:\Users\yannv\Documents\Projets_HW\z88dk\lib\config\..\..\/include/sound.h"
   319                          	C_LINE	320,"C:\Users\yannv\Documents\Projets_HW\z88dk\lib\config\..\..\/include/sound.h"
   320                          	C_LINE	321,"C:\Users\yannv\Documents\Projets_HW\z88dk\lib\config\..\..\/include/sound.h"
   321                          	C_LINE	322,"C:\Users\yannv\Documents\Projets_HW\z88dk\lib\config\..\..\/include/sound.h"
   322                          	C_LINE	323,"C:\Users\yannv\Documents\Projets_HW\z88dk\lib\config\..\..\/include/sound.h"
   323                          	C_LINE	324,"C:\Users\yannv\Documents\Projets_HW\z88dk\lib\config\..\..\/include/sound.h"
   324                          	C_LINE	11,"Test_DMA.c"
Test_DMA.c:
    11                          	C_LINE	20,"Test_DMA.c"
    20                          	C_LINE	21,"Test_DMA.c"
    21                          	C_LINE	74,"Test_DMA.c"
    74                          	SECTION	code_compiler
    74                          
    74                          ; Function Test_1 flags 0x00000200 __smallc
    74                          ; void Test_1()
    74                          	C_LINE	75,"Test_DMA.c::Test_1::0::0"
Test_DMA.c::Test_1::0::0:
    75                          ._Test_1
    75   000000 3e00            	ld	a,1
    75   000002 320000          	ld	(_test_step),a
    75   000005 110000          	ld	de,32768	;const
    75   000008 210000          	ld	hl,_ram1_test_data
    75   00000b 7d              	ld	a,l
    75   00000c 12              	ld	(de),a
    75   00000d 210000          	ld	hl,32768	;const
    75   000010 e5              	push	hl
    75   000011 210000          	ld	hl,_ram1_test_data
    75   000014 6c              	ld	l,h
    75   000015 d1              	pop	de
    75   000016 7d              	ld	a,l
    75   000017 12              	ld	(de),a
    75   000018 210000          	ld	hl,32769	;const
    75   00001b 3600            	ld	(hl),4
    75   00001d 210000          	ld	hl,32769	;const
    75   000020 3600            	ld	(hl),64
    75   000022 210000          	ld	hl,32768	;const
    75   000025 6e              	ld	l,(hl)
    75   000026 2600            	ld	h,0
    75   000028 e5              	push	hl
    75   000029 210000          	ld	hl,_ram1_test_data
    75   00002c 2600            	ld	h,0
    75   00002e d1              	pop	de
    75   00002f cd0000          	call	l_ne
    75   000032 d20000          	jp	nc,i_2	;
    75   000035 3e00            	ld	a,1
    75   000037 320000          	ld	(_error_code),a
    75                          .i_2
    75   00003a 210000          	ld	hl,32768	;const
    75   00003d 6e              	ld	l,(hl)
    75   00003e 2600            	ld	h,0
    75   000040 e5              	push	hl
    75   000041 210000          	ld	hl,_ram1_test_data
    75   000044 6c              	ld	l,h
    75   000045 2600            	ld	h,0
    75   000047 d1              	pop	de
    75   000048 cd0000          	call	l_ne
    75   00004b d20000          	jp	nc,i_3	;
    75   00004e 3e00            	ld	a,2
    75   000050 320000          	ld	(_error_code),a
    75                          .i_3
    75   000053 210000          	ld	hl,32769	;const
    75   000056 7e              	ld	a,(hl)
    75   000057 fe00            	cp	4
    75   000059 ca0000          	jp	z,i_4	;
    75   00005c 3e00            	ld	a,3
    75   00005e 320000          	ld	(_error_code),a
    75                          .i_4
    75   000061 210000          	ld	hl,32769	;const
    75   000064 7e              	ld	a,(hl)
    75   000065 fe00            	cp	64
    75   000067 ca0000          	jp	z,i_5	;
    75   00006a 3e00            	ld	a,4
    75   00006c 320000          	ld	(_error_code),a
    75                          .i_5
    75   00006f 210000          	ld	hl,32776	;const
    75   000072 3600            	ld	(hl),65
    75   000074 210000          	ld	hl,32776	;const
    75   000077 7e              	ld	a,(hl)
    75   000078 a7              	and	a
    75   000079 c8              	ret	z
    75   00007a 210000          	ld	hl,5	;const
    75   00007d 7d              	ld	a,l
    75   00007e 320000          	ld	(_error_code),a
    75                          .i_6
    75   000081 c9              	ret
    75                          
    75                          
    75                          	C_LINE	118,"Test_DMA.c::Test_1::0::6"
Test_DMA.c::Test_1::0::6:
   118                          
   118                          ; Function Test_2 flags 0x00000200 __smallc
   118                          ; void Test_2()
   118                          	C_LINE	119,"Test_DMA.c::Test_2::0::6"
Test_DMA.c::Test_2::0::6:
   119                          ._Test_2
   119   000082 c5              	push	bc
   119   000083 c5              	push	bc
   119   000084 3b              	dec	sp
   119   000085 3e00            	ld	a,2
   119   000087 320000          	ld	(_test_step),a
   119   00008a 210000          	ld	hl,1	;const
   119   00008d 39              	add	hl,sp
   119   00008e e5              	push	hl
   119   00008f 210000          	ld	hl,_ram1_test_data
   119   000092 3e00            	ld	a,-72
   119   000094 84              	add	h
   119   000095 67              	ld	h,a
   119   000096 d1              	pop	de
   119   000097 cd0000          	call	l_pint
   119   00009a 210000          	ld	hl,3	;const
   119   00009d 39              	add	hl,sp
   119   00009e af              	xor	a
   119   00009f 77              	ld	(hl),a
   119   0000a0 23              	inc	hl
   119   0000a1 77              	ld	(hl),a
   119   0000a2 c30000          	jp	i_9	;EOS
   119                          .i_7
   119   0000a5 210000          	ld	hl,3	;const
   119   0000a8 39              	add	hl,sp
   119   0000a9 34              	inc	(hl)
   119   0000aa 7e              	ld	a,(hl)
   119   0000ab 23              	inc	hl
   119   0000ac 2000            	jr	nz,ASMPC+3
   119   0000ae 34              	inc	(hl)
   119                          .i_9
   119   0000af 210000          	ld	hl,3	;const
   119   0000b2 39              	add	hl,sp
   119   0000b3 cd0000          	call	l_gint	;
   119   0000b6 110000          	ld	de,5
   119   0000b9 a7              	and	a
   119   0000ba ed52            	sbc	hl,de
   119   0000bc d20000          	jp	nc,i_8	;
   119   0000bf 110000          	ld	de,_ram1_test_data
   119   0000c2 210000          	ld	hl,3	;const
   119   0000c5 39              	add	hl,sp
   119   0000c6 cd0000          	call	l_gint	;
   119   0000c9 19              	add	hl,de
   119   0000ca 3600            	ld	(hl),2
   119   0000cc c30000          	jp	i_7	;EOS
   119                          .i_8
   119   0000cf 210000          	ld	hl,3	;const
   119   0000d2 39              	add	hl,sp
   119   0000d3 af              	xor	a
   119   0000d4 77              	ld	(hl),a
   119   0000d5 23              	inc	hl
   119   0000d6 77              	ld	(hl),a
   119   0000d7 c30000          	jp	i_12	;EOS
   119                          .i_10
   119   0000da 210000          	ld	hl,3	;const
   119   0000dd 39              	add	hl,sp
   119   0000de 34              	inc	(hl)
   119   0000df 7e              	ld	a,(hl)
   119   0000e0 23              	inc	hl
   119   0000e1 2000            	jr	nz,ASMPC+3
   119   0000e3 34              	inc	(hl)
   119                          .i_12
   119   0000e4 210000          	ld	hl,3	;const
   119   0000e7 39              	add	hl,sp
   119   0000e8 cd0000          	call	l_gint	;
   119   0000eb 110000          	ld	de,5
   119   0000ee a7              	and	a
   119   0000ef ed52            	sbc	hl,de
   119   0000f1 d20000          	jp	nc,i_11	;
   119   0000f4 210000          	ld	hl,1	;const
   119   0000f7 39              	add	hl,sp
   119   0000f8 cd0000          	call	l_gint	;
   119   0000fb 3e00            	ld	a,64
   119   0000fd 84              	add	h
   119   0000fe 67              	ld	h,a
   119   0000ff eb              	ex	de,hl
   119   000100 210000          	ld	hl,3	;const
   119   000103 39              	add	hl,sp
   119   000104 cd0000          	call	l_gint	;
   119   000107 19              	add	hl,de
   119   000108 3600            	ld	(hl),0
   119   00010a c30000          	jp	i_10	;EOS
   119                          .i_11
   119   00010d 110000          	ld	de,32768	;const
   119   000110 210000          	ld	hl,_ram1_test_data
   119   000113 7d              	ld	a,l
   119   000114 12              	ld	(de),a
   119   000115 210000          	ld	hl,32768	;const
   119   000118 e5              	push	hl
   119   000119 210000          	ld	hl,_ram1_test_data
   119   00011c 6c              	ld	l,h
   119   00011d d1              	pop	de
   119   00011e 7d              	ld	a,l
   119   00011f 12              	ld	(de),a
   119   000120 210000          	ld	hl,32769	;const
   119   000123 3600            	ld	(hl),4
   119   000125 210000          	ld	hl,32769	;const
   119   000128 3600            	ld	(hl),64
   119   00012a 210000          	ld	hl,32776	;const
   119   00012d 3600            	ld	(hl),65
   119   00012f 210000          	ld	hl,28672	;const
   119   000132 3600            	ld	(hl),0
   119                          .i_13
   119   000134 e1              	pop	hl
   119   000135 e5              	push	hl
   119   000136 2600            	ld	h,0
   119   000138 3e00            	ld	a,1
   119   00013a a5              	and	l
   119   00013b 6f              	ld	l,a
   119   00013c 2000            	jr	nz,ASMPC+3
   119   00013e 37              	scf
   119   00013f d20000          	jp	nc,i_14	;
   119   000142 210000          	ld	hl,0	;const
   119   000145 39              	add	hl,sp
   119   000146 e5              	push	hl
   119   000147 210000          	ld	hl,32776	;const
   119   00014a 7e              	ld	a,(hl)
   119   00014b d1              	pop	de
   119   00014c 12              	ld	(de),a
   119   00014d c30000          	jp	i_13	;EOS
   119                          .i_14
   119   000150 210000          	ld	hl,28676	;const
   119   000153 3600            	ld	(hl),0
   119   000155 210000          	ld	hl,0	;const
   119   000158 39              	add	hl,sp
   119   000159 e5              	push	hl
   119   00015a 210000          	ld	hl,32776	;const
   119   00015d 7e              	ld	a,(hl)
   119   00015e d1              	pop	de
   119   00015f 12              	ld	(de),a
   119   000160 e1              	pop	hl
   119   000161 e5              	push	hl
   119   000162 2600            	ld	h,0
   119   000164 7d              	ld	a,l
   119   000165 e600            	and	1
   119   000167 ca0000          	jp	z,i_15	;
   119   00016a 3e00            	ld	a,6
   119   00016c 320000          	ld	(_error_code),a
   119                          .i_15
   119   00016f 210000          	ld	hl,3	;const
   119   000172 39              	add	hl,sp
   119   000173 af              	xor	a
   119   000174 77              	ld	(hl),a
   119   000175 23              	inc	hl
   119   000176 77              	ld	(hl),a
   119   000177 c30000          	jp	i_18	;EOS
   119                          .i_16
   119   00017a 210000          	ld	hl,3	;const
   119   00017d 39              	add	hl,sp
   119   00017e 34              	inc	(hl)
   119   00017f 7e              	ld	a,(hl)
   119   000180 23              	inc	hl
   119   000181 2000            	jr	nz,ASMPC+3
   119   000183 34              	inc	(hl)
   119                          .i_18
   119   000184 210000          	ld	hl,3	;const
   119   000187 39              	add	hl,sp
   119   000188 cd0000          	call	l_gint	;
   119   00018b 110000          	ld	de,5
   119   00018e a7              	and	a
   119   00018f ed52            	sbc	hl,de
   119   000191 d20000          	jp	nc,i_17	;
   119   000194 210000          	ld	hl,1	;const
   119   000197 39              	add	hl,sp
   119   000198 cd0000          	call	l_gint	;
   119   00019b 3e00            	ld	a,64
   119   00019d 84              	add	h
   119   00019e 67              	ld	h,a
   119   00019f eb              	ex	de,hl
   119   0001a0 210000          	ld	hl,3	;const
   119   0001a3 39              	add	hl,sp
   119   0001a4 cd0000          	call	l_gint	;
   119   0001a7 19              	add	hl,de
   119   0001a8 6e              	ld	l,(hl)
   119   0001a9 2600            	ld	h,0
   119   0001ab e5              	push	hl
   119   0001ac 110000          	ld	de,_ram1_test_data
   119   0001af 210000          	ld	hl,5	;const
   119   0001b2 39              	add	hl,sp
   119   0001b3 cd0000          	call	l_gint	;
   119   0001b6 19              	add	hl,de
   119   0001b7 6e              	ld	l,(hl)
   119   0001b8 2600            	ld	h,0
   119   0001ba d1              	pop	de
   119   0001bb cd0000          	call	l_ne
   119   0001be d20000          	jp	nc,i_19	;
   119   0001c1 3e00            	ld	a,7
   119   0001c3 320000          	ld	(_error_code),a
   119   0001c6 c30000          	jp	i_16	;EOS
   119                          .i_17
   119   0001c9 33              	inc	sp
   119   0001ca c1              	pop	bc
   119   0001cb c1              	pop	bc
   119   0001cc c9              	ret
   119                          
   119                          
   119                          	C_LINE	183,"Test_DMA.c::Test_2::0::12"
Test_DMA.c::Test_2::0::12:
   183                          
   183                          ; Function Test_2_1 flags 0x00000200 __smallc
   183                          ; void Test_2_1()
   183                          	C_LINE	184,"Test_DMA.c::Test_2_1::0::12"
Test_DMA.c::Test_2_1::0::12:
   184                          ._Test_2_1
   184   0001cd c5              	push	bc
   184   0001ce c5              	push	bc
   184   0001cf 3b              	dec	sp
   184   0001d0 3e00            	ld	a,21
   184   0001d2 320000          	ld	(_test_step),a
   184   0001d5 210000          	ld	hl,1	;const
   184   0001d8 39              	add	hl,sp
   184   0001d9 e5              	push	hl
   184   0001da 210000          	ld	hl,_ram1_test_data
   184   0001dd 3e00            	ld	a,-72
   184   0001df 84              	add	h
   184   0001e0 67              	ld	h,a
   184   0001e1 d1              	pop	de
   184   0001e2 cd0000          	call	l_pint
   184   0001e5 210000          	ld	hl,3	;const
   184   0001e8 39              	add	hl,sp
   184   0001e9 af              	xor	a
   184   0001ea 77              	ld	(hl),a
   184   0001eb 23              	inc	hl
   184   0001ec 77              	ld	(hl),a
   184   0001ed c30000          	jp	i_22	;EOS
   184                          .i_20
   184   0001f0 210000          	ld	hl,3	;const
   184   0001f3 39              	add	hl,sp
   184   0001f4 34              	inc	(hl)
   184   0001f5 7e              	ld	a,(hl)
   184   0001f6 23              	inc	hl
   184   0001f7 2000            	jr	nz,ASMPC+3
   184   0001f9 34              	inc	(hl)
   184                          .i_22
   184   0001fa 210000          	ld	hl,3	;const
   184   0001fd 39              	add	hl,sp
   184   0001fe cd0000          	call	l_gint	;
   184   000201 110000          	ld	de,20
   184   000204 a7              	and	a
   184   000205 ed52            	sbc	hl,de
   184   000207 d20000          	jp	nc,i_21	;
   184   00020a 110000          	ld	de,_ram1_test_data
   184   00020d 210000          	ld	hl,3	;const
   184   000210 39              	add	hl,sp
   184   000211 cd0000          	call	l_gint	;
   184   000214 19              	add	hl,de
   184   000215 3600            	ld	(hl),2
   184   000217 c30000          	jp	i_20	;EOS
   184                          .i_21
   184   00021a 210000          	ld	hl,3	;const
   184   00021d 39              	add	hl,sp
   184   00021e af              	xor	a
   184   00021f 77              	ld	(hl),a
   184   000220 23              	inc	hl
   184   000221 77              	ld	(hl),a
   184   000222 c30000          	jp	i_25	;EOS
   184                          .i_23
   184   000225 210000          	ld	hl,3	;const
   184   000228 39              	add	hl,sp
   184   000229 34              	inc	(hl)
   184   00022a 7e              	ld	a,(hl)
   184   00022b 23              	inc	hl
   184   00022c 2000            	jr	nz,ASMPC+3
   184   00022e 34              	inc	(hl)
   184                          .i_25
   184   00022f 210000          	ld	hl,3	;const
   184   000232 39              	add	hl,sp
   184   000233 cd0000          	call	l_gint	;
   184   000236 110000          	ld	de,20
   184   000239 a7              	and	a
   184   00023a ed52            	sbc	hl,de
   184   00023c d20000          	jp	nc,i_24	;
   184   00023f 210000          	ld	hl,1	;const
   184   000242 39              	add	hl,sp
   184   000243 cd0000          	call	l_gint	;
   184   000246 3e00            	ld	a,64
   184   000248 84              	add	h
   184   000249 67              	ld	h,a
   184   00024a eb              	ex	de,hl
   184   00024b 210000          	ld	hl,3	;const
   184   00024e 39              	add	hl,sp
   184   00024f cd0000          	call	l_gint	;
   184   000252 19              	add	hl,de
   184   000253 3600            	ld	(hl),0
   184   000255 c30000          	jp	i_23	;EOS
   184                          .i_24
   184   000258 110000          	ld	de,32768	;const
   184   00025b 210000          	ld	hl,_ram1_test_data
   184   00025e 7d              	ld	a,l
   184   00025f 12              	ld	(de),a
   184   000260 210000          	ld	hl,32768	;const
   184   000263 e5              	push	hl
   184   000264 210000          	ld	hl,_ram1_test_data
   184   000267 6c              	ld	l,h
   184   000268 d1              	pop	de
   184   000269 7d              	ld	a,l
   184   00026a 12              	ld	(de),a
   184   00026b 210000          	ld	hl,32769	;const
   184   00026e 3600            	ld	(hl),19
   184   000270 210000          	ld	hl,32769	;const
   184   000273 3600            	ld	(hl),64
   184   000275 210000          	ld	hl,32776	;const
   184   000278 3600            	ld	(hl),65
   184   00027a 210000          	ld	hl,28672	;const
   184   00027d 3600            	ld	(hl),0
   184   00027f 210000          	ld	hl,0	;const
   184   000282 39              	add	hl,sp
   184   000283 e5              	push	hl
   184   000284 210000          	ld	hl,32776	;const
   184   000287 7e              	ld	a,(hl)
   184   000288 d1              	pop	de
   184   000289 12              	ld	(de),a
   184                          .i_26
   184   00028a e1              	pop	hl
   184   00028b e5              	push	hl
   184   00028c 2600            	ld	h,0
   184   00028e 3e00            	ld	a,1
   184   000290 a5              	and	l
   184   000291 6f              	ld	l,a
   184   000292 2000            	jr	nz,ASMPC+3
   184   000294 37              	scf
   184   000295 d20000          	jp	nc,i_27	;
   184   000298 210000          	ld	hl,0	;const
   184   00029b 39              	add	hl,sp
   184   00029c e5              	push	hl
   184   00029d 210000          	ld	hl,32776	;const
   184   0002a0 7e              	ld	a,(hl)
   184   0002a1 d1              	pop	de
   184   0002a2 12              	ld	(de),a
   184   0002a3 c30000          	jp	i_26	;EOS
   184                          .i_27
   184   0002a6 210000          	ld	hl,28676	;const
   184   0002a9 3600            	ld	(hl),0
   184   0002ab 210000          	ld	hl,0	;const
   184   0002ae 39              	add	hl,sp
   184   0002af e5              	push	hl
   184   0002b0 210000          	ld	hl,32776	;const
   184   0002b3 7e              	ld	a,(hl)
   184   0002b4 d1              	pop	de
   184   0002b5 12              	ld	(de),a
   184   0002b6 e1              	pop	hl
   184   0002b7 e5              	push	hl
   184   0002b8 2600            	ld	h,0
   184   0002ba 7d              	ld	a,l
   184   0002bb e600            	and	1
   184   0002bd cac502          	jp	z,i_28	;
   184   0002c0 3e06            	ld	a,6
   184   0002c2 32bc02          	ld	(_error_code),a
   184                          .i_28
   184   0002c5 210300          	ld	hl,3	;const
   184   0002c8 39              	add	hl,sp
   184   0002c9 af              	xor	a
   184   0002ca 77              	ld	(hl),a
   184   0002cb 23              	inc	hl
   184   0002cc 77              	ld	(hl),a
   184   0002cd c3da02          	jp	i_31	;EOS
   184                          .i_29
   184   0002d0 210300          	ld	hl,3	;const
   184   0002d3 39              	add	hl,sp
   184   0002d4 34              	inc	(hl)
   184   0002d5 7e              	ld	a,(hl)
   184   0002d6 23              	inc	hl
   184   0002d7 2001            	jr	nz,ASMPC+3
   184   0002d9 34              	inc	(hl)
   184                          .i_31
   184   0002da 210300          	ld	hl,3	;const
   184   0002dd 39              	add	hl,sp
   184   0002de cd0000          	call	l_gint	;
   184   0002e1 110500          	ld	de,5
   184   0002e4 a7              	and	a
   184   0002e5 ed52            	sbc	hl,de
   184   0002e7 d21f03          	jp	nc,i_30	;
   184   0002ea 210100          	ld	hl,1	;const
   184   0002ed 39              	add	hl,sp
   184   0002ee cd0000          	call	l_gint	;
   184   0002f1 3e40            	ld	a,64
   184   0002f3 84              	add	h
   184   0002f4 67              	ld	h,a
   184   0002f5 eb              	ex	de,hl
   184   0002f6 210300          	ld	hl,3	;const
   184   0002f9 39              	add	hl,sp
   184   0002fa cd0000          	call	l_gint	;
   184   0002fd 19              	add	hl,de
   184   0002fe 6e              	ld	l,(hl)
   184   0002ff 2600            	ld	h,0
   184   000301 e5              	push	hl
   184   000302 110000          	ld	de,_ram1_test_data
   184   000305 210500          	ld	hl,5	;const
   184   000308 39              	add	hl,sp
   184   000309 cd0000          	call	l_gint	;
   184   00030c 19              	add	hl,de
   184   00030d 6e              	ld	l,(hl)
   184   00030e 2600            	ld	h,0
   184   000310 d1              	pop	de
   184   000311 cd0000          	call	l_ne
   184   000314 d2d002          	jp	nc,i_32	;
   184   000317 3e07            	ld	a,7
   184   000319 32bc02          	ld	(_error_code),a
   184   00031c c3d002          	jp	i_29	;EOS
   184                          .i_30
   184   00031f 210300          	ld	hl,3	;const
   184   000322 39              	add	hl,sp
   184   000323 af              	xor	a
   184   000324 77              	ld	(hl),a
   184   000325 23              	inc	hl
   184   000326 77              	ld	(hl),a
   184   000327 c33403          	jp	i_35	;EOS
   184                          .i_33
   184   00032a 210300          	ld	hl,3	;const
   184   00032d 39              	add	hl,sp
   184   00032e 34              	inc	(hl)
   184   00032f 7e              	ld	a,(hl)
   184   000330 23              	inc	hl
   184   000331 2001            	jr	nz,ASMPC+3
   184   000333 34              	inc	(hl)
   184                          .i_35
   184   000334 210300          	ld	hl,3	;const
   184   000337 39              	add	hl,sp
   184   000338 cd0000          	call	l_gint	;
   184   00033b 111400          	ld	de,20
   184   00033e a7              	and	a
   184   00033f ed52            	sbc	hl,de
   184   000341 d25d03          	jp	nc,i_34	;
   184   000344 210100          	ld	hl,1	;const
   184   000347 39              	add	hl,sp
   184   000348 cd0000          	call	l_gint	;
   184   00034b 3e40            	ld	a,64
   184   00034d 84              	add	h
   184   00034e 67              	ld	h,a
   184   00034f eb              	ex	de,hl
   184   000350 210300          	ld	hl,3	;const
   184   000353 39              	add	hl,sp
   184   000354 cd0000          	call	l_gint	;
   184   000357 19              	add	hl,de
   184   000358 3600            	ld	(hl),0
   184   00035a c32a03          	jp	i_33	;EOS
   184                          .i_34
   184   00035d 110080          	ld	de,32768	;const
   184   000360 210000          	ld	hl,_ram1_test_data
   184   000363 7d              	ld	a,l
   184   000364 12              	ld	(de),a
   184   000365 210080          	ld	hl,32768	;const
   184   000368 e5              	push	hl
   184   000369 210000          	ld	hl,_ram1_test_data
   184   00036c 6c              	ld	l,h
   184   00036d d1              	pop	de
   184   00036e 7d              	ld	a,l
   184   00036f 12              	ld	(de),a
   184   000370 210180          	ld	hl,32769	;const
   184   000373 3613            	ld	(hl),19
   184   000375 210180          	ld	hl,32769	;const
   184   000378 3640            	ld	(hl),64
   184   00037a 210880          	ld	hl,32776	;const
   184   00037d 3641            	ld	(hl),65
   184   00037f 210070          	ld	hl,28672	;const
   184   000382 3600            	ld	(hl),0
   184   000384 210000          	ld	hl,0	;const
   184   000387 39              	add	hl,sp
   184   000388 e5              	push	hl
   184   000389 210880          	ld	hl,32776	;const
   184   00038c 7e              	ld	a,(hl)
   184   00038d d1              	pop	de
   184   00038e 12              	ld	(de),a
   184                          .i_36
   184   00038f e1              	pop	hl
   184   000390 e5              	push	hl
   184   000391 2600            	ld	h,0
   184   000393 3e01            	ld	a,1
   184   000395 a5              	and	l
   184   000396 6f              	ld	l,a
   184   000397 2001            	jr	nz,ASMPC+3
   184   000399 37              	scf
   184   00039a d2ab03          	jp	nc,i_37	;
   184   00039d 210000          	ld	hl,0	;const
   184   0003a0 39              	add	hl,sp
   184   0003a1 e5              	push	hl
   184   0003a2 210880          	ld	hl,32776	;const
   184   0003a5 7e              	ld	a,(hl)
   184   0003a6 d1              	pop	de
   184   0003a7 12              	ld	(de),a
   184   0003a8 c38f03          	jp	i_36	;EOS
   184                          .i_37
   184   0003ab 210470          	ld	hl,28676	;const
   184   0003ae 3600            	ld	(hl),0
   184   0003b0 210000          	ld	hl,0	;const
   184   0003b3 39              	add	hl,sp
   184   0003b4 e5              	push	hl
   184   0003b5 210880          	ld	hl,32776	;const
   184   0003b8 7e              	ld	a,(hl)
   184   0003b9 d1              	pop	de
   184   0003ba 12              	ld	(de),a
   184   0003bb e1              	pop	hl
   184   0003bc e5              	push	hl
   184   0003bd 2600            	ld	h,0
   184   0003bf 7d              	ld	a,l
   184   0003c0 e601            	and	1
   184   0003c2 caca03          	jp	z,i_38	;
   184   0003c5 3e08            	ld	a,8
   184   0003c7 32bc02          	ld	(_error_code),a
   184                          .i_38
   184   0003ca 210300          	ld	hl,3	;const
   184   0003cd 39              	add	hl,sp
   184   0003ce af              	xor	a
   184   0003cf 77              	ld	(hl),a
   184   0003d0 23              	inc	hl
   184   0003d1 77              	ld	(hl),a
   184   0003d2 c3df03          	jp	i_41	;EOS
   184                          .i_39
   184   0003d5 210300          	ld	hl,3	;const
   184   0003d8 39              	add	hl,sp
   184   0003d9 34              	inc	(hl)
   184   0003da 7e              	ld	a,(hl)
   184   0003db 23              	inc	hl
   184   0003dc 2001            	jr	nz,ASMPC+3
   184   0003de 34              	inc	(hl)
   184                          .i_41
   184   0003df 210300          	ld	hl,3	;const
   184   0003e2 39              	add	hl,sp
   184   0003e3 cd0000          	call	l_gint	;
   184   0003e6 110500          	ld	de,5
   184   0003e9 a7              	and	a
   184   0003ea ed52            	sbc	hl,de
   184   0003ec d22404          	jp	nc,i_40	;
   184   0003ef 210100          	ld	hl,1	;const
   184   0003f2 39              	add	hl,sp
   184   0003f3 cd0000          	call	l_gint	;
   184   0003f6 3e40            	ld	a,64
   184   0003f8 84              	add	h
   184   0003f9 67              	ld	h,a
   184   0003fa eb              	ex	de,hl
   184   0003fb 210300          	ld	hl,3	;const
   184   0003fe 39              	add	hl,sp
   184   0003ff cd0000          	call	l_gint	;
   184   000402 19              	add	hl,de
   184   000403 6e              	ld	l,(hl)
   184   000404 2600            	ld	h,0
   184   000406 e5              	push	hl
   184   000407 110000          	ld	de,_ram1_test_data
   184   00040a 210500          	ld	hl,5	;const
   184   00040d 39              	add	hl,sp
   184   00040e cd0000          	call	l_gint	;
   184   000411 19              	add	hl,de
   184   000412 6e              	ld	l,(hl)
   184   000413 2600            	ld	h,0
   184   000415 d1              	pop	de
   184   000416 cd0000          	call	l_ne
   184   000419 d2d503          	jp	nc,i_42	;
   184   00041c 3e09            	ld	a,9
   184   00041e 32bc02          	ld	(_error_code),a
   184   000421 c3d503          	jp	i_39	;EOS
   184                          .i_40
   184   000424 33              	inc	sp
   184   000425 c1              	pop	bc
   184   000426 c1              	pop	bc
   184   000427 c9              	ret
   184                          
   184                          
   184                          	C_LINE	291,"Test_DMA.c::Test_2_1::0::23"
Test_DMA.c::Test_2_1::0::23:
   291                          
   291                          ; Function Test_3 flags 0x00000200 __smallc
   291                          ; void Test_3()
   291                          	C_LINE	292,"Test_DMA.c::Test_3::0::23"
Test_DMA.c::Test_3::0::23:
   292                          ._Test_3
   292   000428 c5              	push	bc
   292   000429 c5              	push	bc
   292   00042a 3b              	dec	sp
   292   00042b 3e03            	ld	a,3
   292   00042d 32bd02          	ld	(_test_step),a
   292   000430 210100          	ld	hl,1	;const
   292   000433 39              	add	hl,sp
   292   000434 e5              	push	hl
   292   000435 210000          	ld	hl,_ram1_test_data
   292   000438 3eb8            	ld	a,-72
   292   00043a 84              	add	h
   292   00043b 67              	ld	h,a
   292   00043c d1              	pop	de
   292   00043d cd0000          	call	l_pint
   292   000440 210300          	ld	hl,3	;const
   292   000443 39              	add	hl,sp
   292   000444 af              	xor	a
   292   000445 77              	ld	(hl),a
   292   000446 23              	inc	hl
   292   000447 77              	ld	(hl),a
   292   000448 c35504          	jp	i_45	;EOS
   292                          .i_43
   292   00044b 210300          	ld	hl,3	;const
   292   00044e 39              	add	hl,sp
   292   00044f 34              	inc	(hl)
   292   000450 7e              	ld	a,(hl)
   292   000451 23              	inc	hl
   292   000452 2001            	jr	nz,ASMPC+3
   292   000454 34              	inc	(hl)
   292                          .i_45
   292   000455 210300          	ld	hl,3	;const
   292   000458 39              	add	hl,sp
   292   000459 cd0000          	call	l_gint	;
   292   00045c 110500          	ld	de,5
   292   00045f a7              	and	a
   292   000460 ed52            	sbc	hl,de
   292   000462 d27504          	jp	nc,i_44	;
   292   000465 110000          	ld	de,_ram1_test_data
   292   000468 210300          	ld	hl,3	;const
   292   00046b 39              	add	hl,sp
   292   00046c cd0000          	call	l_gint	;
   292   00046f 19              	add	hl,de
   292   000470 3600            	ld	(hl),0
   292   000472 c34b04          	jp	i_43	;EOS
   292                          .i_44
   292   000475 210300          	ld	hl,3	;const
   292   000478 39              	add	hl,sp
   292   000479 af              	xor	a
   292   00047a 77              	ld	(hl),a
   292   00047b 23              	inc	hl
   292   00047c 77              	ld	(hl),a
   292   00047d c38a04          	jp	i_48	;EOS
   292                          .i_46
   292   000480 210300          	ld	hl,3	;const
   292   000483 39              	add	hl,sp
   292   000484 34              	inc	(hl)
   292   000485 7e              	ld	a,(hl)
   292   000486 23              	inc	hl
   292   000487 2001            	jr	nz,ASMPC+3
   292   000489 34              	inc	(hl)
   292                          .i_48
   292   00048a 210300          	ld	hl,3	;const
   292   00048d 39              	add	hl,sp
   292   00048e cd0000          	call	l_gint	;
   292   000491 110500          	ld	de,5
   292   000494 a7              	and	a
   292   000495 ed52            	sbc	hl,de
   292   000497 d2b304          	jp	nc,i_47	;
   292   00049a 210100          	ld	hl,1	;const
   292   00049d 39              	add	hl,sp
   292   00049e cd0000          	call	l_gint	;
   292   0004a1 3e40            	ld	a,64
   292   0004a3 84              	add	h
   292   0004a4 67              	ld	h,a
   292   0004a5 eb              	ex	de,hl
   292   0004a6 210300          	ld	hl,3	;const
   292   0004a9 39              	add	hl,sp
   292   0004aa cd0000          	call	l_gint	;
   292   0004ad 19              	add	hl,de
   292   0004ae 3603            	ld	(hl),3
   292   0004b0 c38004          	jp	i_46	;EOS
   292                          .i_47
   292   0004b3 110080          	ld	de,32768	;const
   292   0004b6 210000          	ld	hl,_ram1_test_data
   292   0004b9 7d              	ld	a,l
   292   0004ba 12              	ld	(de),a
   292   0004bb 210080          	ld	hl,32768	;const
   292   0004be e5              	push	hl
   292   0004bf 210000          	ld	hl,_ram1_test_data
   292   0004c2 6c              	ld	l,h
   292   0004c3 d1              	pop	de
   292   0004c4 7d              	ld	a,l
   292   0004c5 12              	ld	(de),a
   292   0004c6 210180          	ld	hl,32769	;const
   292   0004c9 3604            	ld	(hl),4
   292   0004cb 210180          	ld	hl,32769	;const
   292   0004ce 3680            	ld	(hl),128
   292   0004d0 210880          	ld	hl,32776	;const
   292   0004d3 3641            	ld	(hl),65
   292   0004d5 210070          	ld	hl,28672	;const
   292   0004d8 3600            	ld	(hl),0
   292                          .i_49
   292   0004da e1              	pop	hl
   292   0004db e5              	push	hl
   292   0004dc 2600            	ld	h,0
   292   0004de 3e01            	ld	a,1
   292   0004e0 a5              	and	l
   292   0004e1 6f              	ld	l,a
   292   0004e2 2001            	jr	nz,ASMPC+3
   292   0004e4 37              	scf
   292   0004e5 d2f604          	jp	nc,i_50	;
   292   0004e8 210000          	ld	hl,0	;const
   292   0004eb 39              	add	hl,sp
   292   0004ec e5              	push	hl
   292   0004ed 210880          	ld	hl,32776	;const
   292   0004f0 7e              	ld	a,(hl)
   292   0004f1 d1              	pop	de
   292   0004f2 12              	ld	(de),a
   292   0004f3 c3da04          	jp	i_49	;EOS
   292                          .i_50
   292   0004f6 210470          	ld	hl,28676	;const
   292   0004f9 3600            	ld	(hl),0
   292   0004fb 210000          	ld	hl,0	;const
   292   0004fe 39              	add	hl,sp
   292   0004ff e5              	push	hl
   292   000500 210880          	ld	hl,32776	;const
   292   000503 7e              	ld	a,(hl)
   292   000504 d1              	pop	de
   292   000505 12              	ld	(de),a
   292   000506 e1              	pop	hl
   292   000507 e5              	push	hl
   292   000508 2600            	ld	h,0
   292   00050a 7d              	ld	a,l
   292   00050b e601            	and	1
   292   00050d ca1505          	jp	z,i_51	;
   292   000510 3e08            	ld	a,8
   292   000512 32bc02          	ld	(_error_code),a
   292                          .i_51
   292   000515 210300          	ld	hl,3	;const
   292   000518 39              	add	hl,sp
   292   000519 af              	xor	a
   292   00051a 77              	ld	(hl),a
   292   00051b 23              	inc	hl
   292   00051c 77              	ld	(hl),a
   292   00051d c32a05          	jp	i_54	;EOS
   292                          .i_52
   292   000520 210300          	ld	hl,3	;const
   292   000523 39              	add	hl,sp
   292   000524 34              	inc	(hl)
   292   000525 7e              	ld	a,(hl)
   292   000526 23              	inc	hl
   292   000527 2001            	jr	nz,ASMPC+3
   292   000529 34              	inc	(hl)
   292                          .i_54
   292   00052a 210300          	ld	hl,3	;const
   292   00052d 39              	add	hl,sp
   292   00052e cd0000          	call	l_gint	;
   292   000531 110500          	ld	de,5
   292   000534 a7              	and	a
   292   000535 ed52            	sbc	hl,de
   292   000537 d26f05          	jp	nc,i_53	;
   292   00053a 110000          	ld	de,_ram1_test_data
   292   00053d 210300          	ld	hl,3	;const
   292   000540 39              	add	hl,sp
   292   000541 cd0000          	call	l_gint	;
   292   000544 19              	add	hl,de
   292   000545 6e              	ld	l,(hl)
   292   000546 2600            	ld	h,0
   292   000548 e5              	push	hl
   292   000549 210300          	ld	hl,3	;const
   292   00054c 39              	add	hl,sp
   292   00054d cd0000          	call	l_gint	;
   292   000550 3e40            	ld	a,64
   292   000552 84              	add	h
   292   000553 67              	ld	h,a
   292   000554 eb              	ex	de,hl
   292   000555 210500          	ld	hl,5	;const
   292   000558 39              	add	hl,sp
   292   000559 cd0000          	call	l_gint	;
   292   00055c 19              	add	hl,de
   292   00055d 6e              	ld	l,(hl)
   292   00055e 2600            	ld	h,0
   292   000560 d1              	pop	de
   292   000561 cd0000          	call	l_ne
   292   000564 d22005          	jp	nc,i_55	;
   292   000567 3e09            	ld	a,9
   292   000569 32bc02          	ld	(_error_code),a
   292   00056c c32005          	jp	i_52	;EOS
   292                          .i_53
   292   00056f 33              	inc	sp
   292   000570 c1              	pop	bc
   292   000571 c1              	pop	bc
   292   000572 c9              	ret
   292                          
   292                          
   292                          	C_LINE	350,"Test_DMA.c::Test_3::0::29"
Test_DMA.c::Test_3::0::29:
   350                          
   350                          ; Function Test_4 flags 0x00000200 __smallc
   350                          ; void Test_4()
   350                          	C_LINE	351,"Test_DMA.c::Test_4::0::29"
Test_DMA.c::Test_4::0::29:
   351                          ._Test_4
   351   000573 21f1ff          	ld	hl,65521	;const
   351   000576 39              	add	hl,sp
   351   000577 f9              	ld	sp,hl
   351   000578 3e04            	ld	a,4
   351   00057a 32bd02          	ld	(_test_step),a
   351   00057d 210900          	ld	hl,9	;const
   351   000580 39              	add	hl,sp
   351   000581 e5              	push	hl
   351   000582 210000          	ld	hl,_ram1_test_data
   351   000585 3eb8            	ld	a,-72
   351   000587 84              	add	h
   351   000588 67              	ld	h,a
   351   000589 d1              	pop	de
   351   00058a cd0000          	call	l_pint
   351   00058d 210d00          	ld	hl,13	;const
   351   000590 39              	add	hl,sp
   351   000591 af              	xor	a
   351   000592 77              	ld	(hl),a
   351   000593 23              	inc	hl
   351   000594 77              	ld	(hl),a
   351   000595 c3a205          	jp	i_58	;EOS
   351                          .i_56
   351   000598 210d00          	ld	hl,13	;const
   351   00059b 39              	add	hl,sp
   351   00059c 34              	inc	(hl)
   351   00059d 7e              	ld	a,(hl)
   351   00059e 23              	inc	hl
   351   00059f 2001            	jr	nz,ASMPC+3
   351   0005a1 34              	inc	(hl)
   351                          .i_58
   351   0005a2 210d00          	ld	hl,13	;const
   351   0005a5 39              	add	hl,sp
   351   0005a6 cd0000          	call	l_gint	;
   351   0005a9 11bc02          	ld	de,700
   351   0005ac a7              	and	a
   351   0005ad ed52            	sbc	hl,de
   351   0005af d2c205          	jp	nc,i_57	;
   351   0005b2 110000          	ld	de,_ram1_test_data
   351   0005b5 210d00          	ld	hl,13	;const
   351   0005b8 39              	add	hl,sp
   351   0005b9 cd0000          	call	l_gint	;
   351   0005bc 19              	add	hl,de
   351   0005bd 3604            	ld	(hl),4
   351   0005bf c39805          	jp	i_56	;EOS
   351                          .i_57
   351   0005c2 210d00          	ld	hl,13	;const
   351   0005c5 39              	add	hl,sp
   351   0005c6 af              	xor	a
   351   0005c7 77              	ld	(hl),a
   351   0005c8 23              	inc	hl
   351   0005c9 77              	ld	(hl),a
   351   0005ca c3d705          	jp	i_61	;EOS
   351                          .i_59
   351   0005cd 210d00          	ld	hl,13	;const
   351   0005d0 39              	add	hl,sp
   351   0005d1 34              	inc	(hl)
   351   0005d2 7e              	ld	a,(hl)
   351   0005d3 23              	inc	hl
   351   0005d4 2001            	jr	nz,ASMPC+3
   351   0005d6 34              	inc	(hl)
   351                          .i_61
   351   0005d7 210d00          	ld	hl,13	;const
   351   0005da 39              	add	hl,sp
   351   0005db cd0000          	call	l_gint	;
   351   0005de 11bc02          	ld	de,700
   351   0005e1 a7              	and	a
   351   0005e2 ed52            	sbc	hl,de
   351   0005e4 d20006          	jp	nc,i_60	;
   351   0005e7 210900          	ld	hl,9	;const
   351   0005ea 39              	add	hl,sp
   351   0005eb cd0000          	call	l_gint	;
   351   0005ee 3e40            	ld	a,64
   351   0005f0 84              	add	h
   351   0005f1 67              	ld	h,a
   351   0005f2 eb              	ex	de,hl
   351   0005f3 210d00          	ld	hl,13	;const
   351   0005f6 39              	add	hl,sp
   351   0005f7 cd0000          	call	l_gint	;
   351   0005fa 19              	add	hl,de
   351   0005fb 3600            	ld	(hl),0
   351   0005fd c3cd05          	jp	i_59	;EOS
   351                          .i_60
   351   000600 110080          	ld	de,32768	;const
   351   000603 210000          	ld	hl,_ram1_test_data
   351   000606 7d              	ld	a,l
   351   000607 12              	ld	(de),a
   351   000608 210080          	ld	hl,32768	;const
   351   00060b e5              	push	hl
   351   00060c 210000          	ld	hl,_ram1_test_data
   351   00060f 6c              	ld	l,h
   351   000610 d1              	pop	de
   351   000611 7d              	ld	a,l
   351   000612 12              	ld	(de),a
   351   000613 210180          	ld	hl,32769	;const
   351   000616 36bb            	ld	(hl),187
   351   000618 210180          	ld	hl,32769	;const
   351   00061b 3642            	ld	(hl),66
   351   00061d 210880          	ld	hl,32776	;const
   351   000620 3641            	ld	(hl),65
   351   000622 210070          	ld	hl,28672	;const
   351   000625 3600            	ld	(hl),0
   351   000627 210b00          	ld	hl,11	;const
   351   00062a 39              	add	hl,sp
   351   00062b af              	xor	a
   351   00062c 77              	ld	(hl),a
   351   00062d 23              	inc	hl
   351   00062e 77              	ld	(hl),a
   351   00062f c33c06          	jp	i_64	;EOS
   351                          .i_62
   351   000632 210b00          	ld	hl,11	;const
   351   000635 39              	add	hl,sp
   351   000636 34              	inc	(hl)
   351   000637 7e              	ld	a,(hl)
   351   000638 23              	inc	hl
   351   000639 2001            	jr	nz,ASMPC+3
   351   00063b 34              	inc	(hl)
   351                          .i_64
   351   00063c 210b00          	ld	hl,11	;const
   351   00063f 39              	add	hl,sp
   351   000640 cd0000          	call	l_gint	;
   351   000643 110500          	ld	de,5
   351   000646 a7              	and	a
   351   000647 ed52            	sbc	hl,de
   351   000649 da3206          	jp	c,i_62	;EOS
   351                          .i_63
   351   00064c 210470          	ld	hl,28676	;const
   351   00064f 3600            	ld	(hl),0
   351   000651 210500          	ld	hl,5	;const
   351   000654 39              	add	hl,sp
   351   000655 110080          	ld	de,32768	;const
   351   000658 1a              	ld	a,(de)
   351   000659 77              	ld	(hl),a
   351   00065a 23              	inc	hl
   351   00065b 3600            	ld	(hl),0
   351   00065d 210700          	ld	hl,7	;const
   351   000660 39              	add	hl,sp
   351   000661 110080          	ld	de,32768	;const
   351   000664 1a              	ld	a,(de)
   351   000665 77              	ld	(hl),a
   351   000666 23              	inc	hl
   351   000667 3600            	ld	(hl),0
   351   000669 210100          	ld	hl,1	;const
   351   00066c 39              	add	hl,sp
   351   00066d 110180          	ld	de,32769	;const
   351   000670 1a              	ld	a,(de)
   351   000671 77              	ld	(hl),a
   351   000672 23              	inc	hl
   351   000673 3600            	ld	(hl),0
   351   000675 210300          	ld	hl,3	;const
   351   000678 39              	add	hl,sp
   351   000679 110180          	ld	de,32769	;const
   351   00067c 1a              	ld	a,(de)
   351   00067d 77              	ld	(hl),a
   351   00067e 23              	inc	hl
   351   00067f 3600            	ld	(hl),0
   351   000681 210700          	ld	hl,7	;const
   351   000684 39              	add	hl,sp
   351   000685 cd0000          	call	l_gint	;
   351   000688 114900          	ld	de,73
   351   00068b a7              	and	a
   351   00068c ed52            	sbc	hl,de
   351   00068e 37              	scf
   351   00068f 2001            	jr	nz,ASMPC+3
   351   000691 3f              	ccf
   351   000692 dad106          	jp	c,i_66	;
   351   000695 210500          	ld	hl,5	;const
   351   000698 39              	add	hl,sp
   351   000699 cd0000          	call	l_gint	;
   351   00069c 113800          	ld	de,56
   351   00069f a7              	and	a
   351   0006a0 ed52            	sbc	hl,de
   351   0006a2 37              	scf
   351   0006a3 2001            	jr	nz,ASMPC+3
   351   0006a5 3f              	ccf
   351   0006a6 dad106          	jp	c,i_66	;
   351   0006a9 210300          	ld	hl,3	;const
   351   0006ac 39              	add	hl,sp
   351   0006ad cd0000          	call	l_gint	;
   351   0006b0 114100          	ld	de,65
   351   0006b3 a7              	and	a
   351   0006b4 ed52            	sbc	hl,de
   351   0006b6 37              	scf
   351   0006b7 2001            	jr	nz,ASMPC+3
   351   0006b9 3f              	ccf
   351   0006ba dad106          	jp	c,i_66	;
   351   0006bd 210100          	ld	hl,1	;const
   351   0006c0 39              	add	hl,sp
   351   0006c1 cd0000          	call	l_gint	;
   351   0006c4 11f300          	ld	de,243
   351   0006c7 a7              	and	a
   351   0006c8 ed52            	sbc	hl,de
   351   0006ca 37              	scf
   351   0006cb 2001            	jr	nz,ASMPC+3
   351   0006cd 3f              	ccf
   351   0006ce d2d606          	jp	nc,i_65	;
   351                          .i_66
   351   0006d1 3e0a            	ld	a,10
   351   0006d3 32bc02          	ld	(_error_code),a
   351                          .i_65
   351   0006d6 210b00          	ld	hl,11	;const
   351   0006d9 39              	add	hl,sp
   351   0006da af              	xor	a
   351   0006db 77              	ld	(hl),a
   351   0006dc 23              	inc	hl
   351   0006dd 77              	ld	(hl),a
   351   0006de c3eb06          	jp	i_70	;EOS
   351                          .i_68
   351   0006e1 210b00          	ld	hl,11	;const
   351   0006e4 39              	add	hl,sp
   351   0006e5 34              	inc	(hl)
   351   0006e6 7e              	ld	a,(hl)
   351   0006e7 23              	inc	hl
   351   0006e8 2001            	jr	nz,ASMPC+3
   351   0006ea 34              	inc	(hl)
   351                          .i_70
   351   0006eb 210b00          	ld	hl,11	;const
   351   0006ee 39              	add	hl,sp
   351   0006ef cd0000          	call	l_gint	;
   351   0006f2 110500          	ld	de,5
   351   0006f5 a7              	and	a
   351   0006f6 ed52            	sbc	hl,de
   351   0006f8 dae106          	jp	c,i_68	;EOS
   351                          .i_69
   351   0006fb 210070          	ld	hl,28672	;const
   351   0006fe 3600            	ld	(hl),0
   351   000700 210000          	ld	hl,0	;const
   351   000703 39              	add	hl,sp
   351   000704 e5              	push	hl
   351   000705 210880          	ld	hl,32776	;const
   351   000708 7e              	ld	a,(hl)
   351   000709 d1              	pop	de
   351   00070a 12              	ld	(de),a
   351                          .i_71
   351   00070b e1              	pop	hl
   351   00070c e5              	push	hl
   351   00070d 2600            	ld	h,0
   351   00070f 3e01            	ld	a,1
   351   000711 a5              	and	l
   351   000712 6f              	ld	l,a
   351   000713 2001            	jr	nz,ASMPC+3
   351   000715 37              	scf
   351   000716 d22707          	jp	nc,i_72	;
   351   000719 210000          	ld	hl,0	;const
   351   00071c 39              	add	hl,sp
   351   00071d e5              	push	hl
   351   00071e 210880          	ld	hl,32776	;const
   351   000721 7e              	ld	a,(hl)
   351   000722 d1              	pop	de
   351   000723 12              	ld	(de),a
   351   000724 c30b07          	jp	i_71	;EOS
   351                          .i_72
   351   000727 210470          	ld	hl,28676	;const
   351   00072a 3600            	ld	(hl),0
   351   00072c 210000          	ld	hl,0	;const
   351   00072f 39              	add	hl,sp
   351   000730 e5              	push	hl
   351   000731 210880          	ld	hl,32776	;const
   351   000734 7e              	ld	a,(hl)
   351   000735 d1              	pop	de
   351   000736 12              	ld	(de),a
   351   000737 e1              	pop	hl
   351   000738 e5              	push	hl
   351   000739 2600            	ld	h,0
   351   00073b 7d              	ld	a,l
   351   00073c e601            	and	1
   351   00073e ca4607          	jp	z,i_73	;
   351   000741 3e0b            	ld	a,11
   351   000743 32bc02          	ld	(_error_code),a
   351                          .i_73
   351   000746 210d00          	ld	hl,13	;const
   351   000749 39              	add	hl,sp
   351   00074a af              	xor	a
   351   00074b 77              	ld	(hl),a
   351   00074c 23              	inc	hl
   351   00074d 77              	ld	(hl),a
   351   00074e c35b07          	jp	i_76	;EOS
   351                          .i_74
   351   000751 210d00          	ld	hl,13	;const
   351   000754 39              	add	hl,sp
   351   000755 34              	inc	(hl)
   351   000756 7e              	ld	a,(hl)
   351   000757 23              	inc	hl
   351   000758 2001            	jr	nz,ASMPC+3
   351   00075a 34              	inc	(hl)
   351                          .i_76
   351   00075b 210d00          	ld	hl,13	;const
   351   00075e 39              	add	hl,sp
   351   00075f cd0000          	call	l_gint	;
   351   000762 11bc02          	ld	de,700
   351   000765 a7              	and	a
   351   000766 ed52            	sbc	hl,de
   351   000768 d2a007          	jp	nc,i_75	;
   351   00076b 210900          	ld	hl,9	;const
   351   00076e 39              	add	hl,sp
   351   00076f cd0000          	call	l_gint	;
   351   000772 3e40            	ld	a,64
   351   000774 84              	add	h
   351   000775 67              	ld	h,a
   351   000776 eb              	ex	de,hl
   351   000777 210d00          	ld	hl,13	;const
   351   00077a 39              	add	hl,sp
   351   00077b cd0000          	call	l_gint	;
   351   00077e 19              	add	hl,de
   351   00077f 6e              	ld	l,(hl)
   351   000780 2600            	ld	h,0
   351   000782 e5              	push	hl
   351   000783 110000          	ld	de,_ram1_test_data
   351   000786 210f00          	ld	hl,15	;const
   351   000789 39              	add	hl,sp
   351   00078a cd0000          	call	l_gint	;
   351   00078d 19              	add	hl,de
   351   00078e 6e              	ld	l,(hl)
   351   00078f 2600            	ld	h,0
   351   000791 d1              	pop	de
   351   000792 cd0000          	call	l_ne
   351   000795 d25107          	jp	nc,i_77	;
   351   000798 3e0c            	ld	a,12
   351   00079a 32bc02          	ld	(_error_code),a
   351   00079d c35107          	jp	i_74	;EOS
   351                          .i_75
   351   0007a0 210f00          	ld	hl,15	;const
   351   0007a3 39              	add	hl,sp
   351   0007a4 f9              	ld	sp,hl
   351   0007a5 c9              	ret
   351                          
   351                          
   351                          	C_LINE	432,"Test_DMA.c::Test_4::0::38"
Test_DMA.c::Test_4::0::38:
   432                          
   432                          ; Function Test_5 flags 0x00000200 __smallc
   432                          ; void Test_5()
   432                          	C_LINE	433,"Test_DMA.c::Test_5::0::38"
Test_DMA.c::Test_5::0::38:
   433                          ._Test_5
   433   0007a6 c5              	push	bc
   433   0007a7 c5              	push	bc
   433   0007a8 3b              	dec	sp
   433   0007a9 3e05            	ld	a,5
   433   0007ab 32bd02          	ld	(_test_step),a
   433   0007ae 210100          	ld	hl,1	;const
   433   0007b1 39              	add	hl,sp
   433   0007b2 e5              	push	hl
   433   0007b3 210000          	ld	hl,_ram1_test_data
   433   0007b6 3eb8            	ld	a,-72
   433   0007b8 84              	add	h
   433   0007b9 67              	ld	h,a
   433   0007ba d1              	pop	de
   433   0007bb cd0000          	call	l_pint
   433   0007be 210300          	ld	hl,3	;const
   433   0007c1 39              	add	hl,sp
   433   0007c2 af              	xor	a
   433   0007c3 77              	ld	(hl),a
   433   0007c4 23              	inc	hl
   433   0007c5 77              	ld	(hl),a
   433   0007c6 c3d307          	jp	i_80	;EOS
   433                          .i_78
   433   0007c9 210300          	ld	hl,3	;const
   433   0007cc 39              	add	hl,sp
   433   0007cd 34              	inc	(hl)
   433   0007ce 7e              	ld	a,(hl)
   433   0007cf 23              	inc	hl
   433   0007d0 2001            	jr	nz,ASMPC+3
   433   0007d2 34              	inc	(hl)
   433                          .i_80
   433   0007d3 210300          	ld	hl,3	;const
   433   0007d6 39              	add	hl,sp
   433   0007d7 cd0000          	call	l_gint	;
   433   0007da 111400          	ld	de,20
   433   0007dd a7              	and	a
   433   0007de ed52            	sbc	hl,de
   433   0007e0 d2f307          	jp	nc,i_79	;
   433   0007e3 110000          	ld	de,_ram1_test_data
   433   0007e6 210300          	ld	hl,3	;const
   433   0007e9 39              	add	hl,sp
   433   0007ea cd0000          	call	l_gint	;
   433   0007ed 19              	add	hl,de
   433   0007ee 3605            	ld	(hl),5
   433   0007f0 c3c907          	jp	i_78	;EOS
   433                          .i_79
   433   0007f3 210300          	ld	hl,3	;const
   433   0007f6 39              	add	hl,sp
   433   0007f7 af              	xor	a
   433   0007f8 77              	ld	(hl),a
   433   0007f9 23              	inc	hl
   433   0007fa 77              	ld	(hl),a
   433   0007fb c30808          	jp	i_83	;EOS
   433                          .i_81
   433   0007fe 210300          	ld	hl,3	;const
   433   000801 39              	add	hl,sp
   433   000802 34              	inc	(hl)
   433   000803 7e              	ld	a,(hl)
   433   000804 23              	inc	hl
   433   000805 2001            	jr	nz,ASMPC+3
   433   000807 34              	inc	(hl)
   433                          .i_83
   433   000808 210300          	ld	hl,3	;const
   433   00080b 39              	add	hl,sp
   433   00080c cd0000          	call	l_gint	;
   433   00080f 111400          	ld	de,20
   433   000812 a7              	and	a
   433   000813 ed52            	sbc	hl,de
   433   000815 d23108          	jp	nc,i_82	;
   433   000818 210100          	ld	hl,1	;const
   433   00081b 39              	add	hl,sp
   433   00081c cd0000          	call	l_gint	;
   433   00081f 3e40            	ld	a,64
   433   000821 84              	add	h
   433   000822 67              	ld	h,a
   433   000823 eb              	ex	de,hl
   433   000824 210300          	ld	hl,3	;const
   433   000827 39              	add	hl,sp
   433   000828 cd0000          	call	l_gint	;
   433   00082b 19              	add	hl,de
   433   00082c 3600            	ld	(hl),0
   433   00082e c3fe07          	jp	i_81	;EOS
   433                          .i_82
   433   000831 110280          	ld	de,32770	;const
   433   000834 210000          	ld	hl,_ram1_test_data
   433   000837 7d              	ld	a,l
   433   000838 12              	ld	(de),a
   433   000839 210280          	ld	hl,32770	;const
   433   00083c e5              	push	hl
   433   00083d 210000          	ld	hl,_ram1_test_data
   433   000840 6c              	ld	l,h
   433   000841 d1              	pop	de
   433   000842 7d              	ld	a,l
   433   000843 12              	ld	(de),a
   433   000844 210380          	ld	hl,32771	;const
   433   000847 3613            	ld	(hl),19
   433   000849 210380          	ld	hl,32771	;const
   433   00084c 3640            	ld	(hl),64
   433   00084e 210880          	ld	hl,32776	;const
   433   000851 3642            	ld	(hl),66
   433   000853 210170          	ld	hl,28673	;const
   433   000856 3600            	ld	(hl),0
   433                          .i_84
   433   000858 e1              	pop	hl
   433   000859 e5              	push	hl
   433   00085a 2600            	ld	h,0
   433   00085c 3e02            	ld	a,2
   433   00085e a5              	and	l
   433   00085f 6f              	ld	l,a
   433   000860 2001            	jr	nz,ASMPC+3
   433   000862 37              	scf
   433   000863 d27408          	jp	nc,i_85	;
   433   000866 210000          	ld	hl,0	;const
   433   000869 39              	add	hl,sp
   433   00086a e5              	push	hl
   433   00086b 210880          	ld	hl,32776	;const
   433   00086e 7e              	ld	a,(hl)
   433   00086f d1              	pop	de
   433   000870 12              	ld	(de),a
   433   000871 c35808          	jp	i_84	;EOS
   433                          .i_85
   433   000874 210570          	ld	hl,28677	;const
   433   000877 3600            	ld	(hl),0
   433   000879 210000          	ld	hl,0	;const
   433   00087c 39              	add	hl,sp
   433   00087d e5              	push	hl
   433   00087e 210880          	ld	hl,32776	;const
   433   000881 7e              	ld	a,(hl)
   433   000882 d1              	pop	de
   433   000883 12              	ld	(de),a
   433   000884 e1              	pop	hl
   433   000885 e5              	push	hl
   433   000886 2600            	ld	h,0
   433   000888 7d              	ld	a,l
   433   000889 e601            	and	1
   433   00088b ca9308          	jp	z,i_86	;
   433   00088e 3e0d            	ld	a,13
   433   000890 32bc02          	ld	(_error_code),a
   433                          .i_86
   433   000893 210300          	ld	hl,3	;const
   433   000896 39              	add	hl,sp
   433   000897 af              	xor	a
   433   000898 77              	ld	(hl),a
   433   000899 23              	inc	hl
   433   00089a 77              	ld	(hl),a
   433   00089b c3a808          	jp	i_89	;EOS
   433                          .i_87
   433   00089e 210300          	ld	hl,3	;const
   433   0008a1 39              	add	hl,sp
   433   0008a2 34              	inc	(hl)
   433   0008a3 7e              	ld	a,(hl)
   433   0008a4 23              	inc	hl
   433   0008a5 2001            	jr	nz,ASMPC+3
   433   0008a7 34              	inc	(hl)
   433                          .i_89
   433   0008a8 210300          	ld	hl,3	;const
   433   0008ab 39              	add	hl,sp
   433   0008ac cd0000          	call	l_gint	;
   433   0008af 11bc02          	ld	de,700
   433   0008b2 a7              	and	a
   433   0008b3 ed52            	sbc	hl,de
   433   0008b5 d2ed08          	jp	nc,i_88	;
   433   0008b8 210100          	ld	hl,1	;const
   433   0008bb 39              	add	hl,sp
   433   0008bc cd0000          	call	l_gint	;
   433   0008bf 3e40            	ld	a,64
   433   0008c1 84              	add	h
   433   0008c2 67              	ld	h,a
   433   0008c3 eb              	ex	de,hl
   433   0008c4 210300          	ld	hl,3	;const
   433   0008c7 39              	add	hl,sp
   433   0008c8 cd0000          	call	l_gint	;
   433   0008cb 19              	add	hl,de
   433   0008cc 6e              	ld	l,(hl)
   433   0008cd 2600            	ld	h,0
   433   0008cf e5              	push	hl
   433   0008d0 110000          	ld	de,_ram1_test_data
   433   0008d3 210500          	ld	hl,5	;const
   433   0008d6 39              	add	hl,sp
   433   0008d7 cd0000          	call	l_gint	;
   433   0008da 19              	add	hl,de
   433   0008db 6e              	ld	l,(hl)
   433   0008dc 2600            	ld	h,0
   433   0008de d1              	pop	de
   433   0008df cd0000          	call	l_ne
   433   0008e2 d29e08          	jp	nc,i_90	;
   433   0008e5 3e0e            	ld	a,14
   433   0008e7 32bc02          	ld	(_error_code),a
   433   0008ea c39e08          	jp	i_87	;EOS
   433                          .i_88
   433   0008ed 33              	inc	sp
   433   0008ee c1              	pop	bc
   433   0008ef c1              	pop	bc
   433   0008f0 c9              	ret
   433                          
   433                          
   433                          	C_LINE	489,"Test_DMA.c::Test_5::0::44"
Test_DMA.c::Test_5::0::44:
   489                          
   489                          ; Function Test_6 flags 0x00000200 __smallc
   489                          ; void Test_6()
   489                          	C_LINE	490,"Test_DMA.c::Test_6::0::44"
Test_DMA.c::Test_6::0::44:
   490                          ._Test_6
   490   0008f1 c5              	push	bc
   490   0008f2 c5              	push	bc
   490   0008f3 3b              	dec	sp
   490   0008f4 3e06            	ld	a,6
   490   0008f6 32bd02          	ld	(_test_step),a
   490   0008f9 210100          	ld	hl,1	;const
   490   0008fc 39              	add	hl,sp
   490   0008fd e5              	push	hl
   490   0008fe 210000          	ld	hl,_ram1_test_data
   490   000901 3eb8            	ld	a,-72
   490   000903 84              	add	h
   490   000904 67              	ld	h,a
   490   000905 d1              	pop	de
   490   000906 cd0000          	call	l_pint
   490   000909 210300          	ld	hl,3	;const
   490   00090c 39              	add	hl,sp
   490   00090d af              	xor	a
   490   00090e 77              	ld	(hl),a
   490   00090f 23              	inc	hl
   490   000910 77              	ld	(hl),a
   490   000911 c31e09          	jp	i_93	;EOS
   490                          .i_91
   490   000914 210300          	ld	hl,3	;const
   490   000917 39              	add	hl,sp
   490   000918 34              	inc	(hl)
   490   000919 7e              	ld	a,(hl)
   490   00091a 23              	inc	hl
   490   00091b 2001            	jr	nz,ASMPC+3
   490   00091d 34              	inc	(hl)
   490                          .i_93
   490   00091e 210300          	ld	hl,3	;const
   490   000921 39              	add	hl,sp
   490   000922 cd0000          	call	l_gint	;
   490   000925 111400          	ld	de,20
   490   000928 a7              	and	a
   490   000929 ed52            	sbc	hl,de
   490   00092b d23e09          	jp	nc,i_92	;
   490   00092e 110000          	ld	de,_ram1_test_data
   490   000931 210300          	ld	hl,3	;const
   490   000934 39              	add	hl,sp
   490   000935 cd0000          	call	l_gint	;
   490   000938 19              	add	hl,de
   490   000939 3606            	ld	(hl),6
   490   00093b c31409          	jp	i_91	;EOS
   490                          .i_92
   490   00093e 210300          	ld	hl,3	;const
   490   000941 39              	add	hl,sp
   490   000942 af              	xor	a
   490   000943 77              	ld	(hl),a
   490   000944 23              	inc	hl
   490   000945 77              	ld	(hl),a
   490   000946 c35309          	jp	i_96	;EOS
   490                          .i_94
   490   000949 210300          	ld	hl,3	;const
   490   00094c 39              	add	hl,sp
   490   00094d 34              	inc	(hl)
   490   00094e 7e              	ld	a,(hl)
   490   00094f 23              	inc	hl
   490   000950 2001            	jr	nz,ASMPC+3
   490   000952 34              	inc	(hl)
   490                          .i_96
   490   000953 210300          	ld	hl,3	;const
   490   000956 39              	add	hl,sp
   490   000957 cd0000          	call	l_gint	;
   490   00095a 111400          	ld	de,20
   490   00095d a7              	and	a
   490   00095e ed52            	sbc	hl,de
   490   000960 d27c09          	jp	nc,i_95	;
   490   000963 210100          	ld	hl,1	;const
   490   000966 39              	add	hl,sp
   490   000967 cd0000          	call	l_gint	;
   490   00096a 3e40            	ld	a,64
   490   00096c 84              	add	h
   490   00096d 67              	ld	h,a
   490   00096e eb              	ex	de,hl
   490   00096f 210300          	ld	hl,3	;const
   490   000972 39              	add	hl,sp
   490   000973 cd0000          	call	l_gint	;
   490   000976 19              	add	hl,de
   490   000977 3600            	ld	(hl),0
   490   000979 c34909          	jp	i_94	;EOS
   490                          .i_95
   490   00097c 110280          	ld	de,32770	;const
   490   00097f 210000          	ld	hl,_ram1_test_data
   490   000982 7d              	ld	a,l
   490   000983 12              	ld	(de),a
   490   000984 210280          	ld	hl,32770	;const
   490   000987 e5              	push	hl
   490   000988 210000          	ld	hl,_ram1_test_data
   490   00098b 6c              	ld	l,h
   490   00098c d1              	pop	de
   490   00098d 7d              	ld	a,l
   490   00098e 12              	ld	(de),a
   490   00098f 210380          	ld	hl,32771	;const
   490   000992 3613            	ld	(hl),19
   490   000994 210380          	ld	hl,32771	;const
   490   000997 3640            	ld	(hl),64
   490   000999 210880          	ld	hl,32776	;const
   490   00099c 3643            	ld	(hl),67
   490   00099e 210170          	ld	hl,28673	;const
   490   0009a1 3600            	ld	(hl),0
   490                          .i_97
   490   0009a3 e1              	pop	hl
   490   0009a4 e5              	push	hl
   490   0009a5 2600            	ld	h,0
   490   0009a7 3e02            	ld	a,2
   490   0009a9 a5              	and	l
   490   0009aa 6f              	ld	l,a
   490   0009ab 2001            	jr	nz,ASMPC+3
   490   0009ad 37              	scf
   490   0009ae d2bf09          	jp	nc,i_98	;
   490   0009b1 210000          	ld	hl,0	;const
   490   0009b4 39              	add	hl,sp
   490   0009b5 e5              	push	hl
   490   0009b6 210880          	ld	hl,32776	;const
   490   0009b9 7e              	ld	a,(hl)
   490   0009ba d1              	pop	de
   490   0009bb 12              	ld	(de),a
   490   0009bc c3a309          	jp	i_97	;EOS
   490                          .i_98
   490   0009bf 210570          	ld	hl,28677	;const
   490   0009c2 3600            	ld	(hl),0
   490   0009c4 210000          	ld	hl,0	;const
   490   0009c7 39              	add	hl,sp
   490   0009c8 e5              	push	hl
   490   0009c9 210880          	ld	hl,32776	;const
   490   0009cc 7e              	ld	a,(hl)
   490   0009cd d1              	pop	de
   490   0009ce 12              	ld	(de),a
   490   0009cf e1              	pop	hl
   490   0009d0 e5              	push	hl
   490   0009d1 2600            	ld	h,0
   490   0009d3 7d              	ld	a,l
   490   0009d4 e601            	and	1
   490   0009d6 cade09          	jp	z,i_99	;
   490   0009d9 3e0d            	ld	a,13
   490   0009db 32bc02          	ld	(_error_code),a
   490                          .i_99
   490   0009de 210300          	ld	hl,3	;const
   490   0009e1 39              	add	hl,sp
   490   0009e2 af              	xor	a
   490   0009e3 77              	ld	(hl),a
   490   0009e4 23              	inc	hl
   490   0009e5 77              	ld	(hl),a
   490   0009e6 c3f309          	jp	i_102	;EOS
   490                          .i_100
   490   0009e9 210300          	ld	hl,3	;const
   490   0009ec 39              	add	hl,sp
   490   0009ed 34              	inc	(hl)
   490   0009ee 7e              	ld	a,(hl)
   490   0009ef 23              	inc	hl
   490   0009f0 2001            	jr	nz,ASMPC+3
   490   0009f2 34              	inc	(hl)
   490                          .i_102
   490   0009f3 210300          	ld	hl,3	;const
   490   0009f6 39              	add	hl,sp
   490   0009f7 cd0000          	call	l_gint	;
   490   0009fa 11bc02          	ld	de,700
   490   0009fd a7              	and	a
   490   0009fe ed52            	sbc	hl,de
   490   000a00 d2380a          	jp	nc,i_101	;
   490   000a03 210100          	ld	hl,1	;const
   490   000a06 39              	add	hl,sp
   490   000a07 cd0000          	call	l_gint	;
   490   000a0a 3e40            	ld	a,64
   490   000a0c 84              	add	h
   490   000a0d 67              	ld	h,a
   490   000a0e eb              	ex	de,hl
   490   000a0f 210300          	ld	hl,3	;const
   490   000a12 39              	add	hl,sp
   490   000a13 cd0000          	call	l_gint	;
   490   000a16 19              	add	hl,de
   490   000a17 6e              	ld	l,(hl)
   490   000a18 2600            	ld	h,0
   490   000a1a e5              	push	hl
   490   000a1b 110000          	ld	de,_ram1_test_data
   490   000a1e 210500          	ld	hl,5	;const
   490   000a21 39              	add	hl,sp
   490   000a22 cd0000          	call	l_gint	;
   490   000a25 19              	add	hl,de
   490   000a26 6e              	ld	l,(hl)
   490   000a27 2600            	ld	h,0
   490   000a29 d1              	pop	de
   490   000a2a cd0000          	call	l_ne
   490   000a2d d2e909          	jp	nc,i_103	;
   490   000a30 3e0e            	ld	a,14
   490   000a32 32bc02          	ld	(_error_code),a
   490   000a35 c3e909          	jp	i_100	;EOS
   490                          .i_101
   490   000a38 33              	inc	sp
   490   000a39 c1              	pop	bc
   490   000a3a c1              	pop	bc
   490   000a3b c9              	ret
   490                          
   490                          
   490                          	C_LINE	546,"Test_DMA.c::Test_6::0::50"
Test_DMA.c::Test_6::0::50:
   546                          
   546                          ; Function Test_7 flags 0x00000200 __smallc
   546                          ; void Test_7()
   546                          	C_LINE	547,"Test_DMA.c::Test_7::0::50"
Test_DMA.c::Test_7::0::50:
   547                          ._Test_7
   547   000a3c c5              	push	bc
   547   000a3d c5              	push	bc
   547   000a3e 3b              	dec	sp
   547   000a3f 3e07            	ld	a,7
   547   000a41 32bd02          	ld	(_test_step),a
   547   000a44 210100          	ld	hl,1	;const
   547   000a47 39              	add	hl,sp
   547   000a48 e5              	push	hl
   547   000a49 210000          	ld	hl,_ram1_test_data
   547   000a4c 3eb8            	ld	a,-72
   547   000a4e 84              	add	h
   547   000a4f 67              	ld	h,a
   547   000a50 d1              	pop	de
   547   000a51 cd0000          	call	l_pint
   547   000a54 210300          	ld	hl,3	;const
   547   000a57 39              	add	hl,sp
   547   000a58 af              	xor	a
   547   000a59 77              	ld	(hl),a
   547   000a5a 23              	inc	hl
   547   000a5b 77              	ld	(hl),a
   547   000a5c c3690a          	jp	i_106	;EOS
   547                          .i_104
   547   000a5f 210300          	ld	hl,3	;const
   547   000a62 39              	add	hl,sp
   547   000a63 34              	inc	(hl)
   547   000a64 7e              	ld	a,(hl)
   547   000a65 23              	inc	hl
   547   000a66 2001            	jr	nz,ASMPC+3
   547   000a68 34              	inc	(hl)
   547                          .i_106
   547   000a69 210300          	ld	hl,3	;const
   547   000a6c 39              	add	hl,sp
   547   000a6d cd0000          	call	l_gint	;
   547   000a70 111400          	ld	de,20
   547   000a73 a7              	and	a
   547   000a74 ed52            	sbc	hl,de
   547   000a76 d29c0a          	jp	nc,i_105	;
   547   000a79 110000          	ld	de,_ram1_test_data
   547   000a7c 210300          	ld	hl,3	;const
   547   000a7f 39              	add	hl,sp
   547   000a80 cd0000          	call	l_gint	;
   547   000a83 19              	add	hl,de
   547   000a84 3607            	ld	(hl),7
   547   000a86 210000          	ld	hl,_ram1_test_data
   547   000a89 e5              	push	hl
   547   000a8a 210500          	ld	hl,5	;const
   547   000a8d 39              	add	hl,sp
   547   000a8e 4e              	ld	c,(hl)
   547   000a8f 23              	inc	hl
   547   000a90 46              	ld	b,(hl)
   547   000a91 211400          	ld	hl,20
   547   000a94 09              	add	hl,bc
   547   000a95 d1              	pop	de
   547   000a96 19              	add	hl,de
   547   000a97 3608            	ld	(hl),8
   547   000a99 c35f0a          	jp	i_104	;EOS
   547                          .i_105
   547   000a9c 210300          	ld	hl,3	;const
   547   000a9f 39              	add	hl,sp
   547   000aa0 af              	xor	a
   547   000aa1 77              	ld	(hl),a
   547   000aa2 23              	inc	hl
   547   000aa3 77              	ld	(hl),a
   547   000aa4 c3b10a          	jp	i_109	;EOS
   547                          .i_107
   547   000aa7 210300          	ld	hl,3	;const
   547   000aaa 39              	add	hl,sp
   547   000aab 34              	inc	(hl)
   547   000aac 7e              	ld	a,(hl)
   547   000aad 23              	inc	hl
   547   000aae 2001            	jr	nz,ASMPC+3
   547   000ab0 34              	inc	(hl)
   547                          .i_109
   547   000ab1 210300          	ld	hl,3	;const
   547   000ab4 39              	add	hl,sp
   547   000ab5 cd0000          	call	l_gint	;
   547   000ab8 111400          	ld	de,20
   547   000abb a7              	and	a
   547   000abc ed52            	sbc	hl,de
   547   000abe d2f40a          	jp	nc,i_108	;
   547   000ac1 210100          	ld	hl,1	;const
   547   000ac4 39              	add	hl,sp
   547   000ac5 cd0000          	call	l_gint	;
   547   000ac8 3e40            	ld	a,64
   547   000aca 84              	add	h
   547   000acb 67              	ld	h,a
   547   000acc eb              	ex	de,hl
   547   000acd 210300          	ld	hl,3	;const
   547   000ad0 39              	add	hl,sp
   547   000ad1 cd0000          	call	l_gint	;
   547   000ad4 19              	add	hl,de
   547   000ad5 3600            	ld	(hl),0
   547   000ad7 210100          	ld	hl,1	;const
   547   000ada 39              	add	hl,sp
   547   000adb cd0000          	call	l_gint	;
   547   000ade 3e40            	ld	a,64
   547   000ae0 84              	add	h
   547   000ae1 67              	ld	h,a
   547   000ae2 eb              	ex	de,hl
   547   000ae3 210300          	ld	hl,3	;const
   547   000ae6 39              	add	hl,sp
   547   000ae7 cd0000          	call	l_gint	;
   547   000aea 19              	add	hl,de
   547   000aeb 011400          	ld	bc,20
   547   000aee 09              	add	hl,bc
   547   000aef 3600            	ld	(hl),0
   547   000af1 c3a70a          	jp	i_107	;EOS
   547                          .i_108
   547   000af4 210880          	ld	hl,32776	;const
   547   000af7 3600            	ld	(hl),0
   547   000af9 110080          	ld	de,32768	;const
   547   000afc 210000          	ld	hl,_ram1_test_data
   547   000aff 7d              	ld	a,l
   547   000b00 12              	ld	(de),a
   547   000b01 210080          	ld	hl,32768	;const
   547   000b04 e5              	push	hl
   547   000b05 210000          	ld	hl,_ram1_test_data
   547   000b08 6c              	ld	l,h
   547   000b09 d1              	pop	de
   547   000b0a 7d              	ld	a,l
   547   000b0b 12              	ld	(de),a
   547   000b0c 210180          	ld	hl,32769	;const
   547   000b0f 3613            	ld	(hl),19
   547   000b11 210180          	ld	hl,32769	;const
   547   000b14 3640            	ld	(hl),64
   547   000b16 110280          	ld	de,32770	;const
   547   000b19 211400          	ld	hl,_ram1_test_data+20
   547   000b1c 7d              	ld	a,l
   547   000b1d 12              	ld	(de),a
   547   000b1e 210280          	ld	hl,32770	;const
   547   000b21 e5              	push	hl
   547   000b22 211400          	ld	hl,_ram1_test_data+20
   547   000b25 6c              	ld	l,h
   547   000b26 d1              	pop	de
   547   000b27 7d              	ld	a,l
   547   000b28 12              	ld	(de),a
   547   000b29 210380          	ld	hl,32771	;const
   547   000b2c 3613            	ld	(hl),19
   547   000b2e 210380          	ld	hl,32771	;const
   547   000b31 3640            	ld	(hl),64
   547   000b33 210070          	ld	hl,28672	;const
   547   000b36 3600            	ld	(hl),0
   547   000b38 210170          	ld	hl,28673	;const
   547   000b3b 3600            	ld	(hl),0
   547   000b3d 210880          	ld	hl,32776	;const
   547   000b40 3643            	ld	(hl),67
   547                          .i_110
   547   000b42 e1              	pop	hl
   547   000b43 e5              	push	hl
   547   000b44 2600            	ld	h,0
   547   000b46 3e03            	ld	a,3
   547   000b48 a5              	and	l
   547   000b49 6f              	ld	l,a
   547   000b4a 7d              	ld	a,l
   547   000b4b fe03            	cp	3
   547   000b4d ca5e0b          	jp	z,i_111	;
   547   000b50 210000          	ld	hl,0	;const
   547   000b53 39              	add	hl,sp
   547   000b54 e5              	push	hl
   547   000b55 210880          	ld	hl,32776	;const
   547   000b58 7e              	ld	a,(hl)
   547   000b59 d1              	pop	de
   547   000b5a 12              	ld	(de),a
   547   000b5b c3420b          	jp	i_110	;EOS
   547                          .i_111
   547   000b5e 210470          	ld	hl,28676	;const
   547   000b61 3600            	ld	(hl),0
   547   000b63 210570          	ld	hl,28677	;const
   547   000b66 3600            	ld	(hl),0
   547   000b68 210000          	ld	hl,0	;const
   547   000b6b 39              	add	hl,sp
   547   000b6c e5              	push	hl
   547   000b6d 210880          	ld	hl,32776	;const
   547   000b70 7e              	ld	a,(hl)
   547   000b71 d1              	pop	de
   547   000b72 12              	ld	(de),a
   547   000b73 e1              	pop	hl
   547   000b74 e5              	push	hl
   547   000b75 2600            	ld	h,0
   547   000b77 7d              	ld	a,l
   547   000b78 e601            	and	1
   547   000b7a ca820b          	jp	z,i_112	;
   547   000b7d 3e0f            	ld	a,15
   547   000b7f 32bc02          	ld	(_error_code),a
   547                          .i_112
   547   000b82 210300          	ld	hl,3	;const
   547   000b85 39              	add	hl,sp
   547   000b86 af              	xor	a
   547   000b87 77              	ld	(hl),a
   547   000b88 23              	inc	hl
   547   000b89 77              	ld	(hl),a
   547   000b8a c3970b          	jp	i_115	;EOS
   547                          .i_113
   547   000b8d 210300          	ld	hl,3	;const
   547   000b90 39              	add	hl,sp
   547   000b91 34              	inc	(hl)
   547   000b92 7e              	ld	a,(hl)
   547   000b93 23              	inc	hl
   547   000b94 2001            	jr	nz,ASMPC+3
   547   000b96 34              	inc	(hl)
   547                          .i_115
   547   000b97 210300          	ld	hl,3	;const
   547   000b9a 39              	add	hl,sp
   547   000b9b cd0000          	call	l_gint	;
   547   000b9e 112800          	ld	de,40
   547   000ba1 a7              	and	a
   547   000ba2 ed52            	sbc	hl,de
   547   000ba4 d2dc0b          	jp	nc,i_114	;
   547   000ba7 210100          	ld	hl,1	;const
   547   000baa 39              	add	hl,sp
   547   000bab cd0000          	call	l_gint	;
   547   000bae 3e40            	ld	a,64
   547   000bb0 84              	add	h
   547   000bb1 67              	ld	h,a
   547   000bb2 eb              	ex	de,hl
   547   000bb3 210300          	ld	hl,3	;const
   547   000bb6 39              	add	hl,sp
   547   000bb7 cd0000          	call	l_gint	;
   547   000bba 19              	add	hl,de
   547   000bbb 6e              	ld	l,(hl)
   547   000bbc 2600            	ld	h,0
   547   000bbe e5              	push	hl
   547   000bbf 110000          	ld	de,_ram1_test_data
   547   000bc2 210500          	ld	hl,5	;const
   547   000bc5 39              	add	hl,sp
   547   000bc6 cd0000          	call	l_gint	;
   547   000bc9 19              	add	hl,de
   547   000bca 6e              	ld	l,(hl)
   547   000bcb 2600            	ld	h,0
   547   000bcd d1              	pop	de
   547   000bce cd0000          	call	l_ne
   547   000bd1 d28d0b          	jp	nc,i_116	;
   547   000bd4 3e10            	ld	a,16
   547   000bd6 32bc02          	ld	(_error_code),a
   547   000bd9 c38d0b          	jp	i_113	;EOS
   547                          .i_114
   547   000bdc 33              	inc	sp
   547   000bdd c1              	pop	bc
   547   000bde c1              	pop	bc
   547   000bdf c9              	ret
   547                          
   547                          
   547                          	C_LINE	619,"Test_DMA.c::Test_7::0::57"
Test_DMA.c::Test_7::0::57:
   619                          
   619                          ; Function Test_8 flags 0x00000200 __smallc
   619                          ; void Test_8()
   619                          	C_LINE	620,"Test_DMA.c::Test_8::0::57"
Test_DMA.c::Test_8::0::57:
   620                          ._Test_8
   620   000be0 c5              	push	bc
   620   000be1 c5              	push	bc
   620   000be2 3b              	dec	sp
   620   000be3 3e08            	ld	a,8
   620   000be5 32bd02          	ld	(_test_step),a
   620   000be8 210100          	ld	hl,1	;const
   620   000beb 39              	add	hl,sp
   620   000bec e5              	push	hl
   620   000bed 210000          	ld	hl,_ram1_test_data
   620   000bf0 3eb8            	ld	a,-72
   620   000bf2 84              	add	h
   620   000bf3 67              	ld	h,a
   620   000bf4 d1              	pop	de
   620   000bf5 cd0000          	call	l_pint
   620   000bf8 210300          	ld	hl,3	;const
   620   000bfb 39              	add	hl,sp
   620   000bfc af              	xor	a
   620   000bfd 77              	ld	(hl),a
   620   000bfe 23              	inc	hl
   620   000bff 77              	ld	(hl),a
   620   000c00 c30d0c          	jp	i_119	;EOS
   620                          .i_117
   620   000c03 210300          	ld	hl,3	;const
   620   000c06 39              	add	hl,sp
   620   000c07 34              	inc	(hl)
   620   000c08 7e              	ld	a,(hl)
   620   000c09 23              	inc	hl
   620   000c0a 2001            	jr	nz,ASMPC+3
   620   000c0c 34              	inc	(hl)
   620                          .i_119
   620   000c0d 210300          	ld	hl,3	;const
   620   000c10 39              	add	hl,sp
   620   000c11 cd0000          	call	l_gint	;
   620   000c14 111400          	ld	de,20
   620   000c17 a7              	and	a
   620   000c18 ed52            	sbc	hl,de
   620   000c1a d2400c          	jp	nc,i_118	;
   620   000c1d 110000          	ld	de,_ram1_test_data
   620   000c20 210300          	ld	hl,3	;const
   620   000c23 39              	add	hl,sp
   620   000c24 cd0000          	call	l_gint	;
   620   000c27 19              	add	hl,de
   620   000c28 3609            	ld	(hl),9
   620   000c2a 210000          	ld	hl,_ram1_test_data
   620   000c2d e5              	push	hl
   620   000c2e 210500          	ld	hl,5	;const
   620   000c31 39              	add	hl,sp
   620   000c32 4e              	ld	c,(hl)
   620   000c33 23              	inc	hl
   620   000c34 46              	ld	b,(hl)
   620   000c35 211400          	ld	hl,20
   620   000c38 09              	add	hl,bc
   620   000c39 d1              	pop	de
   620   000c3a 19              	add	hl,de
   620   000c3b 360a            	ld	(hl),10
   620   000c3d c3030c          	jp	i_117	;EOS
   620                          .i_118
   620   000c40 210300          	ld	hl,3	;const
   620   000c43 39              	add	hl,sp
   620   000c44 af              	xor	a
   620   000c45 77              	ld	(hl),a
   620   000c46 23              	inc	hl
   620   000c47 77              	ld	(hl),a
   620   000c48 c3550c          	jp	i_122	;EOS
   620                          .i_120
   620   000c4b 210300          	ld	hl,3	;const
   620   000c4e 39              	add	hl,sp
   620   000c4f 34              	inc	(hl)
   620   000c50 7e              	ld	a,(hl)
   620   000c51 23              	inc	hl
   620   000c52 2001            	jr	nz,ASMPC+3
   620   000c54 34              	inc	(hl)
   620                          .i_122
   620   000c55 210300          	ld	hl,3	;const
   620   000c58 39              	add	hl,sp
   620   000c59 cd0000          	call	l_gint	;
   620   000c5c 111400          	ld	de,20
   620   000c5f a7              	and	a
   620   000c60 ed52            	sbc	hl,de
   620   000c62 d2980c          	jp	nc,i_121	;
   620   000c65 210100          	ld	hl,1	;const
   620   000c68 39              	add	hl,sp
   620   000c69 cd0000          	call	l_gint	;
   620   000c6c 3e40            	ld	a,64
   620   000c6e 84              	add	h
   620   000c6f 67              	ld	h,a
   620   000c70 eb              	ex	de,hl
   620   000c71 210300          	ld	hl,3	;const
   620   000c74 39              	add	hl,sp
   620   000c75 cd0000          	call	l_gint	;
   620   000c78 19              	add	hl,de
   620   000c79 3600            	ld	(hl),0
   620   000c7b 210100          	ld	hl,1	;const
   620   000c7e 39              	add	hl,sp
   620   000c7f cd0000          	call	l_gint	;
   620   000c82 3e40            	ld	a,64
   620   000c84 84              	add	h
   620   000c85 67              	ld	h,a
   620   000c86 eb              	ex	de,hl
   620   000c87 210300          	ld	hl,3	;const
   620   000c8a 39              	add	hl,sp
   620   000c8b cd0000          	call	l_gint	;
   620   000c8e 19              	add	hl,de
   620   000c8f 011400          	ld	bc,20
   620   000c92 09              	add	hl,bc
   620   000c93 3600            	ld	(hl),0
   620   000c95 c34b0c          	jp	i_120	;EOS
   620                          .i_121
   620   000c98 210880          	ld	hl,32776	;const
   620   000c9b 3600            	ld	(hl),0
   620   000c9d 110080          	ld	de,32768	;const
   620   000ca0 210000          	ld	hl,_ram1_test_data
   620   000ca3 7d              	ld	a,l
   620   000ca4 12              	ld	(de),a
   620   000ca5 210080          	ld	hl,32768	;const
   620   000ca8 e5              	push	hl
   620   000ca9 210000          	ld	hl,_ram1_test_data
   620   000cac 6c              	ld	l,h
   620   000cad d1              	pop	de
   620   000cae 7d              	ld	a,l
   620   000caf 12              	ld	(de),a
   620   000cb0 210180          	ld	hl,32769	;const
   620   000cb3 3613            	ld	(hl),19
   620   000cb5 210180          	ld	hl,32769	;const
   620   000cb8 3640            	ld	(hl),64
   620   000cba 110280          	ld	de,32770	;const
   620   000cbd 211400          	ld	hl,_ram1_test_data+20
   620   000cc0 7d              	ld	a,l
   620   000cc1 12              	ld	(de),a
   620   000cc2 210280          	ld	hl,32770	;const
   620   000cc5 e5              	push	hl
   620   000cc6 211400          	ld	hl,_ram1_test_data+20
   620   000cc9 6c              	ld	l,h
   620   000cca d1              	pop	de
   620   000ccb 7d              	ld	a,l
   620   000ccc 12              	ld	(de),a
   620   000ccd 210380          	ld	hl,32771	;const
   620   000cd0 3613            	ld	(hl),19
   620   000cd2 210380          	ld	hl,32771	;const
   620   000cd5 3640            	ld	(hl),64
   620   000cd7 210070          	ld	hl,28672	;const
   620   000cda 3600            	ld	(hl),0
   620   000cdc 210170          	ld	hl,28673	;const
   620   000cdf 3600            	ld	(hl),0
   620   000ce1 210880          	ld	hl,32776	;const
   620   000ce4 3642            	ld	(hl),66
   620                          .i_123
   620   000ce6 e1              	pop	hl
   620   000ce7 e5              	push	hl
   620   000ce8 2600            	ld	h,0
   620   000cea 3e02            	ld	a,2
   620   000cec a5              	and	l
   620   000ced 6f              	ld	l,a
   620   000cee 7d              	ld	a,l
   620   000cef fe02            	cp	2
   620   000cf1 ca020d          	jp	z,i_124	;
   620   000cf4 210000          	ld	hl,0	;const
   620   000cf7 39              	add	hl,sp
   620   000cf8 e5              	push	hl
   620   000cf9 210880          	ld	hl,32776	;const
   620   000cfc 7e              	ld	a,(hl)
   620   000cfd d1              	pop	de
   620   000cfe 12              	ld	(de),a
   620   000cff c3e60c          	jp	i_123	;EOS
   620                          .i_124
   620   000d02 210880          	ld	hl,32776	;const
   620   000d05 3641            	ld	(hl),65
   620                          .i_125
   620   000d07 e1              	pop	hl
   620   000d08 e5              	push	hl
   620   000d09 2600            	ld	h,0
   620   000d0b 3e01            	ld	a,1
   620   000d0d a5              	and	l
   620   000d0e 6f              	ld	l,a
   620   000d0f 7d              	ld	a,l
   620   000d10 fe01            	cp	1
   620   000d12 ca230d          	jp	z,i_126	;
   620   000d15 210000          	ld	hl,0	;const
   620   000d18 39              	add	hl,sp
   620   000d19 e5              	push	hl
   620   000d1a 210880          	ld	hl,32776	;const
   620   000d1d 7e              	ld	a,(hl)
   620   000d1e d1              	pop	de
   620   000d1f 12              	ld	(de),a
   620   000d20 c3070d          	jp	i_125	;EOS
   620                          .i_126
   620   000d23 210470          	ld	hl,28676	;const
   620   000d26 3600            	ld	(hl),0
   620   000d28 210570          	ld	hl,28677	;const
   620   000d2b 3600            	ld	(hl),0
   620   000d2d 210300          	ld	hl,3	;const
   620   000d30 39              	add	hl,sp
   620   000d31 af              	xor	a
   620   000d32 77              	ld	(hl),a
   620   000d33 23              	inc	hl
   620   000d34 77              	ld	(hl),a
   620   000d35 c3420d          	jp	i_129	;EOS
   620                          .i_127
   620   000d38 210300          	ld	hl,3	;const
   620   000d3b 39              	add	hl,sp
   620   000d3c 34              	inc	(hl)
   620   000d3d 7e              	ld	a,(hl)
   620   000d3e 23              	inc	hl
   620   000d3f 2001            	jr	nz,ASMPC+3
   620   000d41 34              	inc	(hl)
   620                          .i_129
   620   000d42 210300          	ld	hl,3	;const
   620   000d45 39              	add	hl,sp
   620   000d46 cd0000          	call	l_gint	;
   620   000d49 112800          	ld	de,40
   620   000d4c a7              	and	a
   620   000d4d ed52            	sbc	hl,de
   620   000d4f d2870d          	jp	nc,i_128	;
   620   000d52 210100          	ld	hl,1	;const
   620   000d55 39              	add	hl,sp
   620   000d56 cd0000          	call	l_gint	;
   620   000d59 3e40            	ld	a,64
   620   000d5b 84              	add	h
   620   000d5c 67              	ld	h,a
   620   000d5d eb              	ex	de,hl
   620   000d5e 210300          	ld	hl,3	;const
   620   000d61 39              	add	hl,sp
   620   000d62 cd0000          	call	l_gint	;
   620   000d65 19              	add	hl,de
   620   000d66 6e              	ld	l,(hl)
   620   000d67 2600            	ld	h,0
   620   000d69 e5              	push	hl
   620   000d6a 110000          	ld	de,_ram1_test_data
   620   000d6d 210500          	ld	hl,5	;const
   620   000d70 39              	add	hl,sp
   620   000d71 cd0000          	call	l_gint	;
   620   000d74 19              	add	hl,de
   620   000d75 6e              	ld	l,(hl)
   620   000d76 2600            	ld	h,0
   620   000d78 d1              	pop	de
   620   000d79 cd0000          	call	l_ne
   620   000d7c d2380d          	jp	nc,i_130	;
   620   000d7f 3e10            	ld	a,16
   620   000d81 32bc02          	ld	(_error_code),a
   620   000d84 c3380d          	jp	i_127	;EOS
   620                          .i_128
   620   000d87 33              	inc	sp
   620   000d88 c1              	pop	bc
   620   000d89 c1              	pop	bc
   620   000d8a c9              	ret
   620                          
   620                          
   620                          	C_LINE	693,"Test_DMA.c::Test_8::0::64"
Test_DMA.c::Test_8::0::64:
   693                          
   693                          ; Function Test_9 flags 0x00000200 __smallc
   693                          ; void Test_9()
   693                          	C_LINE	694,"Test_DMA.c::Test_9::0::64"
Test_DMA.c::Test_9::0::64:
   694                          ._Test_9
   694   000d8b c5              	push	bc
   694   000d8c c5              	push	bc
   694   000d8d 3b              	dec	sp
   694   000d8e 3e09            	ld	a,9
   694   000d90 32bd02          	ld	(_test_step),a
   694   000d93 210100          	ld	hl,1	;const
   694   000d96 39              	add	hl,sp
   694   000d97 e5              	push	hl
   694   000d98 210000          	ld	hl,_ram1_test_data
   694   000d9b 3eb8            	ld	a,-72
   694   000d9d 84              	add	h
   694   000d9e 67              	ld	h,a
   694   000d9f d1              	pop	de
   694   000da0 cd0000          	call	l_pint
   694   000da3 210300          	ld	hl,3	;const
   694   000da6 39              	add	hl,sp
   694   000da7 af              	xor	a
   694   000da8 77              	ld	(hl),a
   694   000da9 23              	inc	hl
   694   000daa 77              	ld	(hl),a
   694   000dab c3b80d          	jp	i_133	;EOS
   694                          .i_131
   694   000dae 210300          	ld	hl,3	;const
   694   000db1 39              	add	hl,sp
   694   000db2 34              	inc	(hl)
   694   000db3 7e              	ld	a,(hl)
   694   000db4 23              	inc	hl
   694   000db5 2001            	jr	nz,ASMPC+3
   694   000db7 34              	inc	(hl)
   694                          .i_133
   694   000db8 210300          	ld	hl,3	;const
   694   000dbb 39              	add	hl,sp
   694   000dbc cd0000          	call	l_gint	;
   694   000dbf 111400          	ld	de,20
   694   000dc2 a7              	and	a
   694   000dc3 ed52            	sbc	hl,de
   694   000dc5 d2eb0d          	jp	nc,i_132	;
   694   000dc8 110000          	ld	de,_ram1_test_data
   694   000dcb 210300          	ld	hl,3	;const
   694   000dce 39              	add	hl,sp
   694   000dcf cd0000          	call	l_gint	;
   694   000dd2 19              	add	hl,de
   694   000dd3 3609            	ld	(hl),9
   694   000dd5 210000          	ld	hl,_ram1_test_data
   694   000dd8 e5              	push	hl
   694   000dd9 210500          	ld	hl,5	;const
   694   000ddc 39              	add	hl,sp
   694   000ddd 4e              	ld	c,(hl)
   694   000dde 23              	inc	hl
   694   000ddf 46              	ld	b,(hl)
   694   000de0 211400          	ld	hl,20
   694   000de3 09              	add	hl,bc
   694   000de4 d1              	pop	de
   694   000de5 19              	add	hl,de
   694   000de6 360a            	ld	(hl),10
   694   000de8 c3ae0d          	jp	i_131	;EOS
   694                          .i_132
   694   000deb 210300          	ld	hl,3	;const
   694   000dee 39              	add	hl,sp
   694   000def af              	xor	a
   694   000df0 77              	ld	(hl),a
   694   000df1 23              	inc	hl
   694   000df2 77              	ld	(hl),a
   694   000df3 c3000e          	jp	i_136	;EOS
   694                          .i_134
   694   000df6 210300          	ld	hl,3	;const
   694   000df9 39              	add	hl,sp
   694   000dfa 34              	inc	(hl)
   694   000dfb 7e              	ld	a,(hl)
   694   000dfc 23              	inc	hl
   694   000dfd 2001            	jr	nz,ASMPC+3
   694   000dff 34              	inc	(hl)
   694                          .i_136
   694   000e00 210300          	ld	hl,3	;const
   694   000e03 39              	add	hl,sp
   694   000e04 cd0000          	call	l_gint	;
   694   000e07 111400          	ld	de,20
   694   000e0a a7              	and	a
   694   000e0b ed52            	sbc	hl,de
   694   000e0d d2430e          	jp	nc,i_135	;
   694   000e10 210100          	ld	hl,1	;const
   694   000e13 39              	add	hl,sp
   694   000e14 cd0000          	call	l_gint	;
   694   000e17 3e40            	ld	a,64
   694   000e19 84              	add	h
   694   000e1a 67              	ld	h,a
   694   000e1b eb              	ex	de,hl
   694   000e1c 210300          	ld	hl,3	;const
   694   000e1f 39              	add	hl,sp
   694   000e20 cd0000          	call	l_gint	;
   694   000e23 19              	add	hl,de
   694   000e24 3600            	ld	(hl),0
   694   000e26 210100          	ld	hl,1	;const
   694   000e29 39              	add	hl,sp
   694   000e2a cd0000          	call	l_gint	;
   694   000e2d 3e40            	ld	a,64
   694   000e2f 84              	add	h
   694   000e30 67              	ld	h,a
   694   000e31 eb              	ex	de,hl
   694   000e32 210300          	ld	hl,3	;const
   694   000e35 39              	add	hl,sp
   694   000e36 cd0000          	call	l_gint	;
   694   000e39 19              	add	hl,de
   694   000e3a 011400          	ld	bc,20
   694   000e3d 09              	add	hl,bc
   694   000e3e 3600            	ld	(hl),0
   694   000e40 c3f60d          	jp	i_134	;EOS
   694                          .i_135
   694   000e43 210880          	ld	hl,32776	;const
   694   000e46 3600            	ld	(hl),0
   694   000e48 110080          	ld	de,32768	;const
   694   000e4b 210000          	ld	hl,_ram1_test_data
   694   000e4e 7d              	ld	a,l
   694   000e4f 12              	ld	(de),a
   694   000e50 210080          	ld	hl,32768	;const
   694   000e53 e5              	push	hl
   694   000e54 210000          	ld	hl,_ram1_test_data
   694   000e57 6c              	ld	l,h
   694   000e58 d1              	pop	de
   694   000e59 7d              	ld	a,l
   694   000e5a 12              	ld	(de),a
   694   000e5b 210180          	ld	hl,32769	;const
   694   000e5e 3613            	ld	(hl),19
   694   000e60 210180          	ld	hl,32769	;const
   694   000e63 3640            	ld	(hl),64
   694   000e65 110280          	ld	de,32770	;const
   694   000e68 211400          	ld	hl,_ram1_test_data+20
   694   000e6b 7d              	ld	a,l
   694   000e6c 12              	ld	(de),a
   694   000e6d 210280          	ld	hl,32770	;const
   694   000e70 e5              	push	hl
   694   000e71 211400          	ld	hl,_ram1_test_data+20
   694   000e74 6c              	ld	l,h
   694   000e75 d1              	pop	de
   694   000e76 7d              	ld	a,l
   694   000e77 12              	ld	(de),a
   694   000e78 210380          	ld	hl,32771	;const
   694   000e7b 3613            	ld	(hl),19
   694   000e7d 210380          	ld	hl,32771	;const
   694   000e80 3640            	ld	(hl),64
   694   000e82 210070          	ld	hl,28672	;const
   694   000e85 3600            	ld	(hl),0
   694   000e87 210170          	ld	hl,28673	;const
   694   000e8a 3600            	ld	(hl),0
   694   000e8c 210880          	ld	hl,32776	;const
   694   000e8f 3653            	ld	(hl),83
   694                          .i_137
   694   000e91 e1              	pop	hl
   694   000e92 e5              	push	hl
   694   000e93 2600            	ld	h,0
   694   000e95 3e03            	ld	a,3
   694   000e97 a5              	and	l
   694   000e98 6f              	ld	l,a
   694   000e99 7d              	ld	a,l
   694   000e9a fe03            	cp	3
   694   000e9c caad0e          	jp	z,i_138	;
   694   000e9f 210000          	ld	hl,0	;const
   694   000ea2 39              	add	hl,sp
   694   000ea3 e5              	push	hl
   694   000ea4 210880          	ld	hl,32776	;const
   694   000ea7 7e              	ld	a,(hl)
   694   000ea8 d1              	pop	de
   694   000ea9 12              	ld	(de),a
   694   000eaa c3910e          	jp	i_137	;EOS
   694                          .i_138
   694   000ead 210470          	ld	hl,28676	;const
   694   000eb0 3600            	ld	(hl),0
   694   000eb2 210570          	ld	hl,28677	;const
   694   000eb5 3600            	ld	(hl),0
   694   000eb7 210300          	ld	hl,3	;const
   694   000eba 39              	add	hl,sp
   694   000ebb af              	xor	a
   694   000ebc 77              	ld	(hl),a
   694   000ebd 23              	inc	hl
   694   000ebe 77              	ld	(hl),a
   694   000ebf c3cc0e          	jp	i_141	;EOS
   694                          .i_139
   694   000ec2 210300          	ld	hl,3	;const
   694   000ec5 39              	add	hl,sp
   694   000ec6 34              	inc	(hl)
   694   000ec7 7e              	ld	a,(hl)
   694   000ec8 23              	inc	hl
   694   000ec9 2001            	jr	nz,ASMPC+3
   694   000ecb 34              	inc	(hl)
   694                          .i_141
   694   000ecc 210300          	ld	hl,3	;const
   694   000ecf 39              	add	hl,sp
   694   000ed0 cd0000          	call	l_gint	;
   694   000ed3 112800          	ld	de,40
   694   000ed6 a7              	and	a
   694   000ed7 ed52            	sbc	hl,de
   694   000ed9 d2110f          	jp	nc,i_140	;
   694   000edc 210100          	ld	hl,1	;const
   694   000edf 39              	add	hl,sp
   694   000ee0 cd0000          	call	l_gint	;
   694   000ee3 3e40            	ld	a,64
   694   000ee5 84              	add	h
   694   000ee6 67              	ld	h,a
   694   000ee7 eb              	ex	de,hl
   694   000ee8 210300          	ld	hl,3	;const
   694   000eeb 39              	add	hl,sp
   694   000eec cd0000          	call	l_gint	;
   694   000eef 19              	add	hl,de
   694   000ef0 6e              	ld	l,(hl)
   694   000ef1 2600            	ld	h,0
   694   000ef3 e5              	push	hl
   694   000ef4 110000          	ld	de,_ram1_test_data
   694   000ef7 210500          	ld	hl,5	;const
   694   000efa 39              	add	hl,sp
   694   000efb cd0000          	call	l_gint	;
   694   000efe 19              	add	hl,de
   694   000eff 6e              	ld	l,(hl)
   694   000f00 2600            	ld	h,0
   694   000f02 d1              	pop	de
   694   000f03 cd0000          	call	l_ne
   694   000f06 d2c20e          	jp	nc,i_142	;
   694   000f09 3e10            	ld	a,16
   694   000f0b 32bc02          	ld	(_error_code),a
   694   000f0e c3c20e          	jp	i_139	;EOS
   694                          .i_140
   694   000f11 33              	inc	sp
   694   000f12 c1              	pop	bc
   694   000f13 c1              	pop	bc
   694   000f14 c9              	ret
   694                          
   694                          
   694                          	C_LINE	759,"Test_DMA.c::Test_9::0::70"
Test_DMA.c::Test_9::0::70:
   759                          
   759                          ; Function Test_10 flags 0x00000200 __smallc
   759                          ; void Test_10()
   759                          	C_LINE	760,"Test_DMA.c::Test_10::0::70"
Test_DMA.c::Test_10::0::70:
   760                          ._Test_10
   760   000f15 c5              	push	bc
   760   000f16 c5              	push	bc
   760   000f17 3b              	dec	sp
   760   000f18 3e0a            	ld	a,10
   760   000f1a 32bd02          	ld	(_test_step),a
   760   000f1d 210100          	ld	hl,1	;const
   760   000f20 39              	add	hl,sp
   760   000f21 e5              	push	hl
   760   000f22 210000          	ld	hl,_ram1_test_data
   760   000f25 3eb8            	ld	a,-72
   760   000f27 84              	add	h
   760   000f28 67              	ld	h,a
   760   000f29 d1              	pop	de
   760   000f2a cd0000          	call	l_pint
   760   000f2d 210300          	ld	hl,3	;const
   760   000f30 39              	add	hl,sp
   760   000f31 af              	xor	a
   760   000f32 77              	ld	(hl),a
   760   000f33 23              	inc	hl
   760   000f34 77              	ld	(hl),a
   760   000f35 c3420f          	jp	i_145	;EOS
   760                          .i_143
   760   000f38 210300          	ld	hl,3	;const
   760   000f3b 39              	add	hl,sp
   760   000f3c 34              	inc	(hl)
   760   000f3d 7e              	ld	a,(hl)
   760   000f3e 23              	inc	hl
   760   000f3f 2001            	jr	nz,ASMPC+3
   760   000f41 34              	inc	(hl)
   760                          .i_145
   760   000f42 210300          	ld	hl,3	;const
   760   000f45 39              	add	hl,sp
   760   000f46 cd0000          	call	l_gint	;
   760   000f49 111400          	ld	de,20
   760   000f4c a7              	and	a
   760   000f4d ed52            	sbc	hl,de
   760   000f4f d29b0f          	jp	nc,i_144	;
   760   000f52 110000          	ld	de,_ram1_test_data
   760   000f55 210300          	ld	hl,3	;const
   760   000f58 39              	add	hl,sp
   760   000f59 cd0000          	call	l_gint	;
   760   000f5c 19              	add	hl,de
   760   000f5d 360b            	ld	(hl),11
   760   000f5f 210000          	ld	hl,_ram1_test_data
   760   000f62 e5              	push	hl
   760   000f63 210500          	ld	hl,5	;const
   760   000f66 39              	add	hl,sp
   760   000f67 4e              	ld	c,(hl)
   760   000f68 23              	inc	hl
   760   000f69 46              	ld	b,(hl)
   760   000f6a 211400          	ld	hl,20
   760   000f6d 09              	add	hl,bc
   760   000f6e d1              	pop	de
   760   000f6f 19              	add	hl,de
   760   000f70 360c            	ld	(hl),12
   760   000f72 210000          	ld	hl,_ram1_test_data
   760   000f75 e5              	push	hl
   760   000f76 210500          	ld	hl,5	;const
   760   000f79 39              	add	hl,sp
   760   000f7a 4e              	ld	c,(hl)
   760   000f7b 23              	inc	hl
   760   000f7c 46              	ld	b,(hl)
   760   000f7d 212800          	ld	hl,40
   760   000f80 09              	add	hl,bc
   760   000f81 d1              	pop	de
   760   000f82 19              	add	hl,de
   760   000f83 360d            	ld	(hl),13
   760   000f85 210000          	ld	hl,_ram1_test_data
   760   000f88 e5              	push	hl
   760   000f89 210500          	ld	hl,5	;const
   760   000f8c 39              	add	hl,sp
   760   000f8d 4e              	ld	c,(hl)
   760   000f8e 23              	inc	hl
   760   000f8f 46              	ld	b,(hl)
   760   000f90 213c00          	ld	hl,60
   760   000f93 09              	add	hl,bc
   760   000f94 d1              	pop	de
   760   000f95 19              	add	hl,de
   760   000f96 360e            	ld	(hl),14
   760   000f98 c3380f          	jp	i_143	;EOS
   760                          .i_144
   760   000f9b 210300          	ld	hl,3	;const
   760   000f9e 39              	add	hl,sp
   760   000f9f af              	xor	a
   760   000fa0 77              	ld	(hl),a
   760   000fa1 23              	inc	hl
   760   000fa2 77              	ld	(hl),a
   760   000fa3 c3b00f          	jp	i_148	;EOS
   760                          .i_146
   760   000fa6 210300          	ld	hl,3	;const
   760   000fa9 39              	add	hl,sp
   760   000faa 34              	inc	(hl)
   760   000fab 7e              	ld	a,(hl)
   760   000fac 23              	inc	hl
   760   000fad 2001            	jr	nz,ASMPC+3
   760   000faf 34              	inc	(hl)
   760                          .i_148
   760   000fb0 210300          	ld	hl,3	;const
   760   000fb3 39              	add	hl,sp
   760   000fb4 cd0000          	call	l_gint	;
   760   000fb7 115000          	ld	de,80
   760   000fba a7              	and	a
   760   000fbb ed52            	sbc	hl,de
   760   000fbd d2d90f          	jp	nc,i_147	;
   760   000fc0 210100          	ld	hl,1	;const
   760   000fc3 39              	add	hl,sp
   760   000fc4 cd0000          	call	l_gint	;
   760   000fc7 3e40            	ld	a,64
   760   000fc9 84              	add	h
   760   000fca 67              	ld	h,a
   760   000fcb eb              	ex	de,hl
   760   000fcc 210300          	ld	hl,3	;const
   760   000fcf 39              	add	hl,sp
   760   000fd0 cd0000          	call	l_gint	;
   760   000fd3 19              	add	hl,de
   760   000fd4 3600            	ld	(hl),0
   760   000fd6 c3a60f          	jp	i_146	;EOS
   760                          .i_147
   760   000fd9 210880          	ld	hl,32776	;const
   760   000fdc 3600            	ld	(hl),0
   760   000fde 110080          	ld	de,32768	;const
   760   000fe1 210000          	ld	hl,_ram1_test_data
   760   000fe4 7d              	ld	a,l
   760   000fe5 12              	ld	(de),a
   760   000fe6 210080          	ld	hl,32768	;const
   760   000fe9 e5              	push	hl
   760   000fea 210000          	ld	hl,_ram1_test_data
   760   000fed 6c              	ld	l,h
   760   000fee d1              	pop	de
   760   000fef 7d              	ld	a,l
   760   000ff0 12              	ld	(de),a
   760   000ff1 210180          	ld	hl,32769	;const
   760   000ff4 3613            	ld	(hl),19
   760   000ff6 210180          	ld	hl,32769	;const
   760   000ff9 3640            	ld	(hl),64
   760   000ffb 110280          	ld	de,32770	;const
   760   000ffe 211400          	ld	hl,_ram1_test_data+20
   760   001001 7d              	ld	a,l
   760   001002 12              	ld	(de),a
   760   001003 210280          	ld	hl,32770	;const
   760   001006 e5              	push	hl
   760   001007 211400          	ld	hl,_ram1_test_data+20
   760   00100a 6c              	ld	l,h
   760   00100b d1              	pop	de
   760   00100c 7d              	ld	a,l
   760   00100d 12              	ld	(de),a
   760   00100e 210380          	ld	hl,32771	;const
   760   001011 3613            	ld	(hl),19
   760   001013 210380          	ld	hl,32771	;const
   760   001016 3640            	ld	(hl),64
   760   001018 110480          	ld	de,32772	;const
   760   00101b 212800          	ld	hl,_ram1_test_data+40
   760   00101e 7d              	ld	a,l
   760   00101f 12              	ld	(de),a
   760   001020 210480          	ld	hl,32772	;const
   760   001023 e5              	push	hl
   760   001024 212800          	ld	hl,_ram1_test_data+40
   760   001027 6c              	ld	l,h
   760   001028 d1              	pop	de
   760   001029 7d              	ld	a,l
   760   00102a 12              	ld	(de),a
   760   00102b 210580          	ld	hl,32773	;const
   760   00102e 3613            	ld	(hl),19
   760   001030 210580          	ld	hl,32773	;const
   760   001033 3640            	ld	(hl),64
   760   001035 110680          	ld	de,32774	;const
   760   001038 213c00          	ld	hl,_ram1_test_data+60
   760   00103b 7d              	ld	a,l
   760   00103c 12              	ld	(de),a
   760   00103d 210680          	ld	hl,32774	;const
   760   001040 e5              	push	hl
   760   001041 213c00          	ld	hl,_ram1_test_data+60
   760   001044 6c              	ld	l,h
   760   001045 d1              	pop	de
   760   001046 7d              	ld	a,l
   760   001047 12              	ld	(de),a
   760   001048 210780          	ld	hl,32775	;const
   760   00104b 3613            	ld	(hl),19
   760   00104d 210780          	ld	hl,32775	;const
   760   001050 3640            	ld	(hl),64
   760   001052 210070          	ld	hl,28672	;const
   760   001055 3600            	ld	(hl),0
   760   001057 210170          	ld	hl,28673	;const
   760   00105a 3600            	ld	(hl),0
   760   00105c 210270          	ld	hl,28674	;const
   760   00105f 3600            	ld	(hl),0
   760   001061 210370          	ld	hl,28675	;const
   760   001064 3600            	ld	(hl),0
   760   001066 210880          	ld	hl,32776	;const
   760   001069 365f            	ld	(hl),95
   760   00106b 210000          	ld	hl,0	;const
   760   00106e 39              	add	hl,sp
   760   00106f e5              	push	hl
   760   001070 210880          	ld	hl,32776	;const
   760   001073 7e              	ld	a,(hl)
   760   001074 d1              	pop	de
   760   001075 12              	ld	(de),a
   760                          .i_149
   760   001076 e1              	pop	hl
   760   001077 e5              	push	hl
   760   001078 2600            	ld	h,0
   760   00107a 3e0f            	ld	a,15
   760   00107c a5              	and	l
   760   00107d 6f              	ld	l,a
   760   00107e 7d              	ld	a,l
   760   00107f fe0f            	cp	15
   760   001081 ca9210          	jp	z,i_150	;
   760   001084 210000          	ld	hl,0	;const
   760   001087 39              	add	hl,sp
   760   001088 e5              	push	hl
   760   001089 210880          	ld	hl,32776	;const
   760   00108c 7e              	ld	a,(hl)
   760   00108d d1              	pop	de
   760   00108e 12              	ld	(de),a
   760   00108f c37610          	jp	i_149	;EOS
   760                          .i_150
   760   001092 210470          	ld	hl,28676	;const
   760   001095 3600            	ld	(hl),0
   760   001097 210570          	ld	hl,28677	;const
   760   00109a 3600            	ld	(hl),0
   760   00109c 210670          	ld	hl,28678	;const
   760   00109f 3600            	ld	(hl),0
   760   0010a1 210770          	ld	hl,28679	;const
   760   0010a4 3600            	ld	(hl),0
   760   0010a6 210300          	ld	hl,3	;const
   760   0010a9 39              	add	hl,sp
   760   0010aa af              	xor	a
   760   0010ab 77              	ld	(hl),a
   760   0010ac 23              	inc	hl
   760   0010ad 77              	ld	(hl),a
   760   0010ae c3bb10          	jp	i_153	;EOS
   760                          .i_151
   760   0010b1 210300          	ld	hl,3	;const
   760   0010b4 39              	add	hl,sp
   760   0010b5 34              	inc	(hl)
   760   0010b6 7e              	ld	a,(hl)
   760   0010b7 23              	inc	hl
   760   0010b8 2001            	jr	nz,ASMPC+3
   760   0010ba 34              	inc	(hl)
   760                          .i_153
   760   0010bb 210300          	ld	hl,3	;const
   760   0010be 39              	add	hl,sp
   760   0010bf cd0000          	call	l_gint	;
   760   0010c2 115000          	ld	de,80
   760   0010c5 a7              	and	a
   760   0010c6 ed52            	sbc	hl,de
   760   0010c8 d20011          	jp	nc,i_152	;
   760   0010cb 210100          	ld	hl,1	;const
   760   0010ce 39              	add	hl,sp
   760   0010cf cd0000          	call	l_gint	;
   760   0010d2 3e40            	ld	a,64
   760   0010d4 84              	add	h
   760   0010d5 67              	ld	h,a
   760   0010d6 eb              	ex	de,hl
   760   0010d7 210300          	ld	hl,3	;const
   760   0010da 39              	add	hl,sp
   760   0010db cd0000          	call	l_gint	;
   760   0010de 19              	add	hl,de
   760   0010df 6e              	ld	l,(hl)
   760   0010e0 2600            	ld	h,0
   760   0010e2 e5              	push	hl
   760   0010e3 110000          	ld	de,_ram1_test_data
   760   0010e6 210500          	ld	hl,5	;const
   760   0010e9 39              	add	hl,sp
   760   0010ea cd0000          	call	l_gint	;
   760   0010ed 19              	add	hl,de
   760   0010ee 6e              	ld	l,(hl)
   760   0010ef 2600            	ld	h,0
   760   0010f1 d1              	pop	de
   760   0010f2 cd0000          	call	l_ne
   760   0010f5 d2b110          	jp	nc,i_154	;
   760   0010f8 3e11            	ld	a,17
   760   0010fa 32bc02          	ld	(_error_code),a
   760   0010fd c3b110          	jp	i_151	;EOS
   760                          .i_152
   760   001100 33              	inc	sp
   760   001101 c1              	pop	bc
   760   001102 c1              	pop	bc
   760   001103 c9              	ret
   760                          
   760                          
   760                          	C_LINE	843,"Test_DMA.c::Test_10::0::76"
Test_DMA.c::Test_10::0::76:
   843                          
   843                          ; Function Test_11 flags 0x00000200 __smallc
   843                          ; void Test_11()
   843                          	C_LINE	844,"Test_DMA.c::Test_11::0::76"
Test_DMA.c::Test_11::0::76:
   844                          ._Test_11
   844   001104 c5              	push	bc
   844   001105 c5              	push	bc
   844   001106 3b              	dec	sp
   844   001107 3e0b            	ld	a,11
   844   001109 32bd02          	ld	(_test_step),a
   844   00110c 210100          	ld	hl,1	;const
   844   00110f 39              	add	hl,sp
   844   001110 e5              	push	hl
   844   001111 210000          	ld	hl,_ram1_test_data
   844   001114 3eb8            	ld	a,-72
   844   001116 84              	add	h
   844   001117 67              	ld	h,a
   844   001118 d1              	pop	de
   844   001119 cd0000          	call	l_pint
   844   00111c 210300          	ld	hl,3	;const
   844   00111f 39              	add	hl,sp
   844   001120 af              	xor	a
   844   001121 77              	ld	(hl),a
   844   001122 23              	inc	hl
   844   001123 77              	ld	(hl),a
   844   001124 c33111          	jp	i_157	;EOS
   844                          .i_155
   844   001127 210300          	ld	hl,3	;const
   844   00112a 39              	add	hl,sp
   844   00112b 34              	inc	(hl)
   844   00112c 7e              	ld	a,(hl)
   844   00112d 23              	inc	hl
   844   00112e 2001            	jr	nz,ASMPC+3
   844   001130 34              	inc	(hl)
   844                          .i_157
   844   001131 210300          	ld	hl,3	;const
   844   001134 39              	add	hl,sp
   844   001135 cd0000          	call	l_gint	;
   844   001138 111400          	ld	de,20
   844   00113b a7              	and	a
   844   00113c ed52            	sbc	hl,de
   844   00113e d28a11          	jp	nc,i_156	;
   844   001141 110000          	ld	de,_ram1_test_data
   844   001144 210300          	ld	hl,3	;const
   844   001147 39              	add	hl,sp
   844   001148 cd0000          	call	l_gint	;
   844   00114b 19              	add	hl,de
   844   00114c 360b            	ld	(hl),11
   844   00114e 210000          	ld	hl,_ram1_test_data
   844   001151 e5              	push	hl
   844   001152 210500          	ld	hl,5	;const
   844   001155 39              	add	hl,sp
   844   001156 4e              	ld	c,(hl)
   844   001157 23              	inc	hl
   844   001158 46              	ld	b,(hl)
   844   001159 211400          	ld	hl,20
   844   00115c 09              	add	hl,bc
   844   00115d d1              	pop	de
   844   00115e 19              	add	hl,de
   844   00115f 360c            	ld	(hl),12
   844   001161 210000          	ld	hl,_ram1_test_data
   844   001164 e5              	push	hl
   844   001165 210500          	ld	hl,5	;const
   844   001168 39              	add	hl,sp
   844   001169 4e              	ld	c,(hl)
   844   00116a 23              	inc	hl
   844   00116b 46              	ld	b,(hl)
   844   00116c 212800          	ld	hl,40
   844   00116f 09              	add	hl,bc
   844   001170 d1              	pop	de
   844   001171 19              	add	hl,de
   844   001172 360d            	ld	(hl),13
   844   001174 210000          	ld	hl,_ram1_test_data
   844   001177 e5              	push	hl
   844   001178 210500          	ld	hl,5	;const
   844   00117b 39              	add	hl,sp
   844   00117c 4e              	ld	c,(hl)
   844   00117d 23              	inc	hl
   844   00117e 46              	ld	b,(hl)
   844   00117f 213c00          	ld	hl,60
   844   001182 09              	add	hl,bc
   844   001183 d1              	pop	de
   844   001184 19              	add	hl,de
   844   001185 360e            	ld	(hl),14
   844   001187 c32711          	jp	i_155	;EOS
   844                          .i_156
   844   00118a 210300          	ld	hl,3	;const
   844   00118d 39              	add	hl,sp
   844   00118e af              	xor	a
   844   00118f 77              	ld	(hl),a
   844   001190 23              	inc	hl
   844   001191 77              	ld	(hl),a
   844   001192 c39f11          	jp	i_160	;EOS
   844                          .i_158
   844   001195 210300          	ld	hl,3	;const
   844   001198 39              	add	hl,sp
   844   001199 34              	inc	(hl)
   844   00119a 7e              	ld	a,(hl)
   844   00119b 23              	inc	hl
   844   00119c 2001            	jr	nz,ASMPC+3
   844   00119e 34              	inc	(hl)
   844                          .i_160
   844   00119f 210300          	ld	hl,3	;const
   844   0011a2 39              	add	hl,sp
   844   0011a3 cd0000          	call	l_gint	;
   844   0011a6 115000          	ld	de,80
   844   0011a9 a7              	and	a
   844   0011aa ed52            	sbc	hl,de
   844   0011ac d2c811          	jp	nc,i_159	;
   844   0011af 210100          	ld	hl,1	;const
   844   0011b2 39              	add	hl,sp
   844   0011b3 cd0000          	call	l_gint	;
   844   0011b6 3e40            	ld	a,64
   844   0011b8 84              	add	h
   844   0011b9 67              	ld	h,a
   844   0011ba eb              	ex	de,hl
   844   0011bb 210300          	ld	hl,3	;const
   844   0011be 39              	add	hl,sp
   844   0011bf cd0000          	call	l_gint	;
   844   0011c2 19              	add	hl,de
   844   0011c3 3600            	ld	(hl),0
   844   0011c5 c39511          	jp	i_158	;EOS
   844                          .i_159
   844   0011c8 210880          	ld	hl,32776	;const
   844   0011cb 3600            	ld	(hl),0
   844   0011cd 110280          	ld	de,32770	;const
   844   0011d0 211400          	ld	hl,_ram1_test_data+20
   844   0011d3 7d              	ld	a,l
   844   0011d4 12              	ld	(de),a
   844   0011d5 210280          	ld	hl,32770	;const
   844   0011d8 e5              	push	hl
   844   0011d9 211400          	ld	hl,_ram1_test_data+20
   844   0011dc 6c              	ld	l,h
   844   0011dd d1              	pop	de
   844   0011de 7d              	ld	a,l
   844   0011df 12              	ld	(de),a
   844   0011e0 210380          	ld	hl,32771	;const
   844   0011e3 3613            	ld	(hl),19
   844   0011e5 210380          	ld	hl,32771	;const
   844   0011e8 3640            	ld	(hl),64
   844   0011ea 110480          	ld	de,32772	;const
   844   0011ed 212800          	ld	hl,_ram1_test_data+40
   844   0011f0 7d              	ld	a,l
   844   0011f1 12              	ld	(de),a
   844   0011f2 210480          	ld	hl,32772	;const
   844   0011f5 e5              	push	hl
   844   0011f6 212800          	ld	hl,_ram1_test_data+40
   844   0011f9 6c              	ld	l,h
   844   0011fa d1              	pop	de
   844   0011fb 7d              	ld	a,l
   844   0011fc 12              	ld	(de),a
   844   0011fd 210580          	ld	hl,32773	;const
   844   001200 3613            	ld	(hl),19
   844   001202 210580          	ld	hl,32773	;const
   844   001205 3640            	ld	(hl),64
   844   001207 110680          	ld	de,32774	;const
   844   00120a 213c00          	ld	hl,_ram1_test_data+60
   844   00120d 7d              	ld	a,l
   844   00120e 12              	ld	(de),a
   844   00120f 210680          	ld	hl,32774	;const
   844   001212 e5              	push	hl
   844   001213 213c00          	ld	hl,_ram1_test_data+60
   844   001216 6c              	ld	l,h
   844   001217 d1              	pop	de
   844   001218 7d              	ld	a,l
   844   001219 12              	ld	(de),a
   844   00121a 210780          	ld	hl,32775	;const
   844   00121d 3613            	ld	(hl),19
   844   00121f 210780          	ld	hl,32775	;const
   844   001222 3640            	ld	(hl),64
   844   001224 210170          	ld	hl,28673	;const
   844   001227 3600            	ld	(hl),0
   844   001229 210270          	ld	hl,28674	;const
   844   00122c 3600            	ld	(hl),0
   844   00122e 210370          	ld	hl,28675	;const
   844   001231 3600            	ld	(hl),0
   844   001233 210880          	ld	hl,32776	;const
   844   001236 365e            	ld	(hl),94
   844                          .i_161
   844   001238 e1              	pop	hl
   844   001239 e5              	push	hl
   844   00123a 2600            	ld	h,0
   844   00123c 3e0e            	ld	a,14
   844   00123e a5              	and	l
   844   00123f 6f              	ld	l,a
   844   001240 7d              	ld	a,l
   844   001241 fe0e            	cp	14
   844   001243 ca5412          	jp	z,i_162	;
   844   001246 210000          	ld	hl,0	;const
   844   001249 39              	add	hl,sp
   844   00124a e5              	push	hl
   844   00124b 210880          	ld	hl,32776	;const
   844   00124e 7e              	ld	a,(hl)
   844   00124f d1              	pop	de
   844   001250 12              	ld	(de),a
   844   001251 c33812          	jp	i_161	;EOS
   844                          .i_162
   844   001254 210570          	ld	hl,28677	;const
   844   001257 3600            	ld	(hl),0
   844   001259 210670          	ld	hl,28678	;const
   844   00125c 3600            	ld	(hl),0
   844   00125e 210770          	ld	hl,28679	;const
   844   001261 3600            	ld	(hl),0
   844   001263 210300          	ld	hl,3	;const
   844   001266 39              	add	hl,sp
   844   001267 3614            	ld	(hl),20
   844   001269 23              	inc	hl
   844   00126a 3600            	ld	(hl),0
   844   00126c c37912          	jp	i_165	;EOS
   844                          .i_163
   844   00126f 210300          	ld	hl,3	;const
   844   001272 39              	add	hl,sp
   844   001273 34              	inc	(hl)
   844   001274 7e              	ld	a,(hl)
   844   001275 23              	inc	hl
   844   001276 2001            	jr	nz,ASMPC+3
   844   001278 34              	inc	(hl)
   844                          .i_165
   844   001279 210300          	ld	hl,3	;const
   844   00127c 39              	add	hl,sp
   844   00127d cd0000          	call	l_gint	;
   844   001280 113c00          	ld	de,60
   844   001283 a7              	and	a
   844   001284 ed52            	sbc	hl,de
   844   001286 d2be12          	jp	nc,i_164	;
   844   001289 210100          	ld	hl,1	;const
   844   00128c 39              	add	hl,sp
   844   00128d cd0000          	call	l_gint	;
   844   001290 3e40            	ld	a,64
   844   001292 84              	add	h
   844   001293 67              	ld	h,a
   844   001294 eb              	ex	de,hl
   844   001295 210300          	ld	hl,3	;const
   844   001298 39              	add	hl,sp
   844   001299 cd0000          	call	l_gint	;
   844   00129c 19              	add	hl,de
   844   00129d 6e              	ld	l,(hl)
   844   00129e 2600            	ld	h,0
   844   0012a0 e5              	push	hl
   844   0012a1 110000          	ld	de,_ram1_test_data
   844   0012a4 210500          	ld	hl,5	;const
   844   0012a7 39              	add	hl,sp
   844   0012a8 cd0000          	call	l_gint	;
   844   0012ab 19              	add	hl,de
   844   0012ac 6e              	ld	l,(hl)
   844   0012ad 2600            	ld	h,0
   844   0012af d1              	pop	de
   844   0012b0 cd0000          	call	l_ne
   844   0012b3 d26f12          	jp	nc,i_166	;
   844   0012b6 3e12            	ld	a,18
   844   0012b8 32bc02          	ld	(_error_code),a
   844   0012bb c36f12          	jp	i_163	;EOS
   844                          .i_164
   844   0012be 33              	inc	sp
   844   0012bf c1              	pop	bc
   844   0012c0 c1              	pop	bc
   844   0012c1 c9              	ret
   844                          
   844                          
   844                          	C_LINE	921,"Test_DMA.c::Test_11::0::82"
Test_DMA.c::Test_11::0::82:
   921                          
   921                          ; Function Test_12 flags 0x00000200 __smallc
   921                          ; void Test_12()
   921                          	C_LINE	922,"Test_DMA.c::Test_12::0::82"
Test_DMA.c::Test_12::0::82:
   922                          ._Test_12
   922   0012c2 c5              	push	bc
   922   0012c3 c5              	push	bc
   922   0012c4 c5              	push	bc
   922   0012c5 3b              	dec	sp
   922   0012c6 3e0c            	ld	a,12
   922   0012c8 32bd02          	ld	(_test_step),a
   922   0012cb 210100          	ld	hl,1	;const
   922   0012ce 39              	add	hl,sp
   922   0012cf e5              	push	hl
   922   0012d0 210000          	ld	hl,_ram1_test_data
   922   0012d3 3eb8            	ld	a,-72
   922   0012d5 84              	add	h
   922   0012d6 67              	ld	h,a
   922   0012d7 d1              	pop	de
   922   0012d8 cd0000          	call	l_pint
   922   0012db 210500          	ld	hl,5	;const
   922   0012de 39              	add	hl,sp
   922   0012df af              	xor	a
   922   0012e0 77              	ld	(hl),a
   922   0012e1 23              	inc	hl
   922   0012e2 77              	ld	(hl),a
   922   0012e3 c3f012          	jp	i_169	;EOS
   922                          .i_167
   922   0012e6 210500          	ld	hl,5	;const
   922   0012e9 39              	add	hl,sp
   922   0012ea 34              	inc	(hl)
   922   0012eb 7e              	ld	a,(hl)
   922   0012ec 23              	inc	hl
   922   0012ed 2001            	jr	nz,ASMPC+3
   922   0012ef 34              	inc	(hl)
   922                          .i_169
   922   0012f0 210500          	ld	hl,5	;const
   922   0012f3 39              	add	hl,sp
   922   0012f4 cd0000          	call	l_gint	;
   922   0012f7 111400          	ld	de,20
   922   0012fa a7              	and	a
   922   0012fb ed52            	sbc	hl,de
   922   0012fd d21013          	jp	nc,i_168	;
   922   001300 110000          	ld	de,_ram1_test_data
   922   001303 210500          	ld	hl,5	;const
   922   001306 39              	add	hl,sp
   922   001307 cd0000          	call	l_gint	;
   922   00130a 19              	add	hl,de
   922   00130b 360f            	ld	(hl),15
   922   00130d c3e612          	jp	i_167	;EOS
   922                          .i_168
   922   001310 210500          	ld	hl,5	;const
   922   001313 39              	add	hl,sp
   922   001314 af              	xor	a
   922   001315 77              	ld	(hl),a
   922   001316 23              	inc	hl
   922   001317 77              	ld	(hl),a
   922   001318 c32513          	jp	i_172	;EOS
   922                          .i_170
   922   00131b 210500          	ld	hl,5	;const
   922   00131e 39              	add	hl,sp
   922   00131f 34              	inc	(hl)
   922   001320 7e              	ld	a,(hl)
   922   001321 23              	inc	hl
   922   001322 2001            	jr	nz,ASMPC+3
   922   001324 34              	inc	(hl)
   922                          .i_172
   922   001325 210500          	ld	hl,5	;const
   922   001328 39              	add	hl,sp
   922   001329 cd0000          	call	l_gint	;
   922   00132c 111400          	ld	de,20
   922   00132f a7              	and	a
   922   001330 ed52            	sbc	hl,de
   922   001332 d24e13          	jp	nc,i_171	;
   922   001335 210100          	ld	hl,1	;const
   922   001338 39              	add	hl,sp
   922   001339 cd0000          	call	l_gint	;
   922   00133c 3e40            	ld	a,64
   922   00133e 84              	add	h
   922   00133f 67              	ld	h,a
   922   001340 eb              	ex	de,hl
   922   001341 210500          	ld	hl,5	;const
   922   001344 39              	add	hl,sp
   922   001345 cd0000          	call	l_gint	;
   922   001348 19              	add	hl,de
   922   001349 3600            	ld	(hl),0
   922   00134b c31b13          	jp	i_170	;EOS
   922                          .i_171
   922   00134e 210880          	ld	hl,32776	;const
   922   001351 3600            	ld	(hl),0
   922   001353 110480          	ld	de,32772	;const
   922   001356 210000          	ld	hl,_ram1_test_data
   922   001359 7d              	ld	a,l
   922   00135a 12              	ld	(de),a
   922   00135b 210480          	ld	hl,32772	;const
   922   00135e e5              	push	hl
   922   00135f 210000          	ld	hl,_ram1_test_data
   922   001362 6c              	ld	l,h
   922   001363 d1              	pop	de
   922   001364 7d              	ld	a,l
   922   001365 12              	ld	(de),a
   922   001366 210580          	ld	hl,32773	;const
   922   001369 3613            	ld	(hl),19
   922   00136b 210580          	ld	hl,32773	;const
   922   00136e 3640            	ld	(hl),64
   922   001370 110680          	ld	de,32774	;const
   922   001373 210000          	ld	hl,_ram1_test_data
   922   001376 7d              	ld	a,l
   922   001377 12              	ld	(de),a
   922   001378 210680          	ld	hl,32774	;const
   922   00137b e5              	push	hl
   922   00137c 210000          	ld	hl,_ram1_test_data
   922   00137f 6c              	ld	l,h
   922   001380 d1              	pop	de
   922   001381 7d              	ld	a,l
   922   001382 12              	ld	(de),a
   922   001383 210780          	ld	hl,32775	;const
   922   001386 3613            	ld	(hl),19
   922   001388 210780          	ld	hl,32775	;const
   922   00138b 3640            	ld	(hl),64
   922   00138d 210e70          	ld	hl,28686	;const
   922   001390 3600            	ld	(hl),0
   922   001392 210270          	ld	hl,28674	;const
   922   001395 3600            	ld	(hl),0
   922   001397 210880          	ld	hl,32776	;const
   922   00139a 36c4            	ld	(hl),196
   922   00139c 210300          	ld	hl,3	;const
   922   00139f 39              	add	hl,sp
   922   0013a0 af              	xor	a
   922   0013a1 77              	ld	(hl),a
   922   0013a2 23              	inc	hl
   922   0013a3 77              	ld	(hl),a
   922   0013a4 c3b113          	jp	i_175	;EOS
   922                          .i_173
   922   0013a7 210300          	ld	hl,3	;const
   922   0013aa 39              	add	hl,sp
   922   0013ab 34              	inc	(hl)
   922   0013ac 7e              	ld	a,(hl)
   922   0013ad 23              	inc	hl
   922   0013ae 2001            	jr	nz,ASMPC+3
   922   0013b0 34              	inc	(hl)
   922                          .i_175
   922   0013b1 210300          	ld	hl,3	;const
   922   0013b4 39              	add	hl,sp
   922   0013b5 cd0000          	call	l_gint	;
   922   0013b8 116400          	ld	de,100
   922   0013bb a7              	and	a
   922   0013bc ed52            	sbc	hl,de
   922   0013be daa713          	jp	c,i_173	;EOS
   922                          .i_174
   922   0013c1 210880          	ld	hl,32776	;const
   922   0013c4 3644            	ld	(hl),68
   922   0013c6 210670          	ld	hl,28678	;const
   922   0013c9 3600            	ld	(hl),0
   922   0013cb 210500          	ld	hl,5	;const
   922   0013ce 39              	add	hl,sp
   922   0013cf 3614            	ld	(hl),20
   922   0013d1 23              	inc	hl
   922   0013d2 3600            	ld	(hl),0
   922   0013d4 c3e113          	jp	i_178	;EOS
   922                          .i_176
   922   0013d7 210500          	ld	hl,5	;const
   922   0013da 39              	add	hl,sp
   922   0013db 34              	inc	(hl)
   922   0013dc 7e              	ld	a,(hl)
   922   0013dd 23              	inc	hl
   922   0013de 2001            	jr	nz,ASMPC+3
   922   0013e0 34              	inc	(hl)
   922                          .i_178
   922   0013e1 210500          	ld	hl,5	;const
   922   0013e4 39              	add	hl,sp
   922   0013e5 cd0000          	call	l_gint	;
   922   0013e8 111400          	ld	de,20
   922   0013eb a7              	and	a
   922   0013ec ed52            	sbc	hl,de
   922   0013ee d22614          	jp	nc,i_177	;
   922   0013f1 210100          	ld	hl,1	;const
   922   0013f4 39              	add	hl,sp
   922   0013f5 cd0000          	call	l_gint	;
   922   0013f8 3e40            	ld	a,64
   922   0013fa 84              	add	h
   922   0013fb 67              	ld	h,a
   922   0013fc eb              	ex	de,hl
   922   0013fd 210500          	ld	hl,5	;const
   922   001400 39              	add	hl,sp
   922   001401 cd0000          	call	l_gint	;
   922   001404 19              	add	hl,de
   922   001405 6e              	ld	l,(hl)
   922   001406 2600            	ld	h,0
   922   001408 e5              	push	hl
   922   001409 110000          	ld	de,_ram1_test_data
   922   00140c 210700          	ld	hl,7	;const
   922   00140f 39              	add	hl,sp
   922   001410 cd0000          	call	l_gint	;
   922   001413 19              	add	hl,de
   922   001414 6e              	ld	l,(hl)
   922   001415 2600            	ld	h,0
   922   001417 d1              	pop	de
   922   001418 cd0000          	call	l_ne
   922   00141b d2d713          	jp	nc,i_179	;
   922   00141e 3e13            	ld	a,19
   922   001420 32bc02          	ld	(_error_code),a
   922   001423 c3d713          	jp	i_176	;EOS
   922                          .i_177
   922   001426 33              	inc	sp
   922   001427 c1              	pop	bc
   922   001428 c1              	pop	bc
   922   001429 c1              	pop	bc
   922   00142a c9              	ret
   922                          
   922                          
   922                          	C_LINE	980,"Test_DMA.c::Test_12::0::88"
Test_DMA.c::Test_12::0::88:
   980                          
   980                          ; Function main flags 0x00000000 __stdc
   980                          ; void main()
   980                          	C_LINE	981,"Test_DMA.c::main::0::89"
Test_DMA.c::main::0::89:
   981                          ._main
   981   00142b c5              	push	bc
   981   00142c c5              	push	bc
   981   00142d c5              	push	bc
   981   00142e c5              	push	bc
   981   00142f c5              	push	bc
   981   001430 af              	xor	a
   981   001431 32bc02          	ld	(_error_code),a
   981   001434 210000          	ld	hl,0	;const
   981   001437 7d              	ld	a,l
   981   001438 32bd02          	ld	(_test_step),a
   981   00143b cdc212          	call	_Test_12
   981   00143e c1              	pop	bc
   981   00143f c1              	pop	bc
   981   001440 c1              	pop	bc
   981   001441 c1              	pop	bc
   981   001442 c1              	pop	bc
   981   001443 c9              	ret
   981                          
   981                          
   981                          ; --- Start of Optimiser additions ---
   981                          	defc	i_19 = i_16
   981                          	defc	i_32 = i_29
   981                          	defc	i_42 = i_39
   981                          	defc	i_55 = i_52
   981                          	defc	i_77 = i_74
   981                          	defc	i_90 = i_87
   981                          	defc	i_103 = i_100
   981                          	defc	i_116 = i_113
   981                          	defc	i_130 = i_127
   981                          	defc	i_142 = i_139
   981                          	defc	i_154 = i_151
   981                          	defc	i_166 = i_163
   981                          	defc	i_179 = i_176
   981                          
   981                          
   981                          ; --- Start of Static Variables ---
   981                          
   981                          	SECTION	bss_compiler
   981   000000 000100bd02000080._ram1_test_data	defs	700
                0000000000000080
                0000000000000000
                0001800004000180
                0040000080000000
                0000000000000000
                0000003a00000100
                bc02000080000000
                0000000000000000
                0000000053000002
                00bc020001800000
                04006100000300bc
                0200018000004000
                6f00000400bc0200
                0880004100088000
                00000005000000bc
                0200000000000200
                bd02000100000000
                000000b800000000
                0000000300000000
                000000af00000300
                0000000000010000
                0300000000000005
                0000000000cf0000
                0000000300000000
                0000000200a50000
                0300000000000000
                e400000300000000
                0000010000030000
                0000000005000000
                00000d0100010000
                0000000040000000
                0003000000000000
                000000da00000080
                0000000000000080
                0000000000000000
                0001800004000180
                0040000880004100
                0070000000000000
                0001000000010000
                5001000000000000
                0880000000003401
                0004700000000000
                0000000880000000
                0000000000000100
                6f01000600bc0200
                0300000000000000
                8401000300000000
                0000010000030000
                0000000005000000
                0000c90100010000
                0000000040000000
                0003000000000000
                0000000000000000
                0500000000000000
                000000000000007a
                01000700bc02007a
                0100000000000000
                001500bd02000100
                000000000000b800
                0000000000000300
                000000000000fa01
                0003000000000000
                0100000300000000
                0000140000000000
                1a02000000000300
                0000000000000200
                f001000300000000
                0000002f02000300
                0000000000010000
                0300000000000014
                0000000000580200
                0100000000000040
                0000000003000000
                0000000000002502
                0000800000000000
                0000800000000000
                0000000001800013
                0001800040000880
                0041000070000000
                0000000000088000
                0000000000000001
                000000010000a602
                0000000000000880
                000000008a020004
                7000000000000000
                0008800000000000
                00000000        
   981   0002bc 01              ._error_code	defs	1
   981   0002bd 00              ._test_step	defs	1
   981                          	SECTION	code_compiler
   981                          
   981                          
   981                          ; --- Start of Scope Defns ---
   981                          
   981                          	GLOBAL	open
   981                          	GLOBAL	creat
   981                          	GLOBAL	close
   981                          	GLOBAL	read
   981                          	GLOBAL	write
   981                          	GLOBAL	lseek
   981                          	GLOBAL	readbyte
   981                          	GLOBAL	writebyte
   981                          	GLOBAL	getcwd
   981                          	GLOBAL	chdir
   981                          	GLOBAL	getwd
   981                          	GLOBAL	rmdir
   981                          	GLOBAL	__RND_BLOCKSIZE
   981                          	GLOBAL	rnd_loadblock
   981                          	GLOBAL	rnd_saveblock
   981                          	GLOBAL	rnd_erase
   981                          	GLOBAL	__FOPEN_MAX
   981                          	GLOBAL	__sgoioblk
   981                          	GLOBAL	__sgoioblk_end
   981                          	GLOBAL	fopen_zsock
   981                          	GLOBAL	fileno
   981                          	GLOBAL	fopen
   981                          	GLOBAL	freopen
   981                          	GLOBAL	fdopen
   981                          	GLOBAL	_freopen1
   981                          	GLOBAL	fmemopen
   981                          	GLOBAL	funopen
   981                          	GLOBAL	fclose
   981                          	GLOBAL	fflush
   981                          	GLOBAL	closeall
   981                          	GLOBAL	fgets
   981                          	GLOBAL	fputs
   981                          	GLOBAL	fputc
   981                          	GLOBAL	fputs_callee
   981                          	GLOBAL	fputc_callee
   981                          	GLOBAL	fgetc
   981                          	GLOBAL	ungetc
   981                          	GLOBAL	feof
   981                          	GLOBAL	ferror
   981                          	GLOBAL	puts
   981                          	GLOBAL	ftell
   981                          	GLOBAL	fgetpos
   981                          	GLOBAL	fseek
   981                          	GLOBAL	fread
   981                          	GLOBAL	fwrite
   981                          	GLOBAL	gets
   981                          	GLOBAL	printf
   981                          	GLOBAL	fprintf
   981                          	GLOBAL	sprintf
   981                          	GLOBAL	snprintf
   981                          	GLOBAL	vfprintf
   981                          	GLOBAL	vsnprintf
   981                          	GLOBAL	printn
   981                          	GLOBAL	scanf
   981                          	GLOBAL	fscanf
   981                          	GLOBAL	sscanf
   981                          	GLOBAL	vfscanf
   981                          	GLOBAL	vsscanf
   981                          	GLOBAL	getarg
   981                          	GLOBAL	fchkstd
   981                          	GLOBAL	fgetc_cons
   981                          	GLOBAL	fgetc_cons_inkey
   981                          	GLOBAL	fputc_cons
   981                          	GLOBAL	fgets_cons
   981                          	GLOBAL	puts_cons
   981                          	GLOBAL	fabandon
   981                          	GLOBAL	fdtell
   981                          	GLOBAL	fdgetpos
   981                          	GLOBAL	rename
   981                          	GLOBAL	remove
   981                          	GLOBAL	getk
   981                          	GLOBAL	getk_inkey
   981                          	GLOBAL	printk
   981                          	GLOBAL	perror
   981                          	GLOBAL	set_fputc_cons
   981                          	GLOBAL	fputc_cons_native
   981                          	GLOBAL	fputc_cons_generic
   981                          	GLOBAL	fputc_cons_ansi
   981                          	GLOBAL	bksave
   981                          	GLOBAL	bkrestore
   981                          	GLOBAL	getsprite
   981                          	GLOBAL	putsprite
   981                          	GLOBAL	putsprite_callee
   981                          	GLOBAL	joystick
   981                          	GLOBAL	joystick_sc
   981                          	GLOBAL	kjoystick
   981                          	GLOBAL	_joystick_type
   981                          	GLOBAL	atoi
   981                          	GLOBAL	atol
   981                          	GLOBAL	itoa
   981                          	GLOBAL	itoa_callee
   981                          	GLOBAL	ltoa
   981                          	GLOBAL	ltoa_callee
   981                          	GLOBAL	strtol
   981                          	GLOBAL	strtol_callee
   981                          	GLOBAL	strtoul
   981                          	GLOBAL	strtoul_callee
   981                          	GLOBAL	ultoa
   981                          	GLOBAL	ultoa_callee
   981                          	GLOBAL	utoa
   981                          	GLOBAL	utoa_callee
   981                          	GLOBAL	rand
   981                          	GLOBAL	srand
   981                          	GLOBAL	mallinit
   981                          	GLOBAL	sbrk
   981                          	GLOBAL	sbrk_callee
   981                          	GLOBAL	calloc
   981                          	GLOBAL	calloc_callee
   981                          	GLOBAL	free
   981                          	GLOBAL	malloc
   981                          	GLOBAL	realloc
   981                          	GLOBAL	realloc_callee
   981                          	GLOBAL	mallinfo
   981                          	GLOBAL	mallinfo_callee
   981                          	GLOBAL	HeapCreate
   981                          	GLOBAL	HeapSbrk
   981                          	GLOBAL	HeapSbrk_callee
   981                          	GLOBAL	HeapCalloc
   981                          	GLOBAL	HeapCalloc_callee
   981                          	GLOBAL	HeapFree
   981                          	GLOBAL	HeapFree_callee
   981                          	GLOBAL	HeapAlloc
   981                          	GLOBAL	HeapAlloc_callee
   981                          	GLOBAL	HeapRealloc
   981                          	GLOBAL	HeapRealloc_callee
   981                          	GLOBAL	HeapInfo
   981                          	GLOBAL	HeapInfo_callee
   981                          	GLOBAL	exit
   981                          	GLOBAL	atexit
   981                          	GLOBAL	getenv
   981                          	GLOBAL	getenv_r
   981                          	GLOBAL	setenv
   981                          	GLOBAL	unsetenv
   981                          	GLOBAL	getopt
   981                          	GLOBAL	_optarg
   981                          	GLOBAL	_opterr
   981                          	GLOBAL	_optind
   981                          	GLOBAL	_optopt
   981                          	GLOBAL	_optreset
   981                          	GLOBAL	l_bsearch
   981                          	GLOBAL	l_bsearch_callee
   981                          	GLOBAL	l_qsort
   981                          	GLOBAL	l_qsort_callee
   981                          	GLOBAL	qsort_sccz80
   981                          	GLOBAL	qsort_sccz80_callee
   981                          	GLOBAL	qsort_sdcc
   981                          	GLOBAL	qsort_sdcc_callee
   981                          	GLOBAL	_div_
   981                          	GLOBAL	_div__callee
   981                          	GLOBAL	_divu_
   981                          	GLOBAL	_divu__callee
   981                          	GLOBAL	_ldiv_
   981                          	GLOBAL	_ldiv__callee
   981                          	GLOBAL	_ldivu_
   981                          	GLOBAL	_ldivu__callee
   981                          	GLOBAL	abs
   981                          	GLOBAL	labs
   981                          	GLOBAL	isqrt
   981                          	GLOBAL	inp
   981                          	GLOBAL	outp
   981                          	GLOBAL	outp_callee
   981                          	GLOBAL	swapendian
   981                          	GLOBAL	bpoke
   981                          	GLOBAL	bpoke_callee
   981                          	GLOBAL	wpoke
   981                          	GLOBAL	wpoke_callee
   981                          	GLOBAL	bpeek
   981                          	GLOBAL	wpeek
   981                          	GLOBAL	t_delay
   981                          	GLOBAL	sleep
   981                          	GLOBAL	msleep
   981                          	GLOBAL	extract_bits
   981                          	GLOBAL	extract_bits_callee
   981                          	GLOBAL	wcmatch
   981                          	GLOBAL	unbcd
   981                          	GLOBAL	fill
   981                          	GLOBAL	plot
   981                          	GLOBAL	plot_callee
   981                          	GLOBAL	unplot
   981                          	GLOBAL	unplot_callee
   981                          	GLOBAL	xorplot
   981                          	GLOBAL	xorplot_callee
   981                          	GLOBAL	point
   981                          	GLOBAL	point_callee
   981                          	GLOBAL	multipoint
   981                          	GLOBAL	multipoint_callee
   981                          	GLOBAL	draw
   981                          	GLOBAL	draw_callee
   981                          	GLOBAL	xordraw
   981                          	GLOBAL	xordraw_callee
   981                          	GLOBAL	undraw
   981                          	GLOBAL	undraw_callee
   981                          	GLOBAL	drawr
   981                          	GLOBAL	drawr_callee
   981                          	GLOBAL	xordrawr
   981                          	GLOBAL	xordrawr_callee
   981                          	GLOBAL	undrawr
   981                          	GLOBAL	undrawr_callee
   981                          	GLOBAL	drawto
   981                          	GLOBAL	drawto_callee
   981                          	GLOBAL	xordrawto
   981                          	GLOBAL	xordrawto_callee
   981                          	GLOBAL	undrawto
   981                          	GLOBAL	undrawto_callee
   981                          	GLOBAL	pen_up
   981                          	GLOBAL	pen_down
   981                          	GLOBAL	move
   981                          	GLOBAL	setpos
   981                          	GLOBAL	setpos_callee
   981                          	GLOBAL	getx
   981                          	GLOBAL	gety
   981                          	GLOBAL	drawb
   981                          	GLOBAL	drawb_callee
   981                          	GLOBAL	xordrawb
   981                          	GLOBAL	xordrawb_callee
   981                          	GLOBAL	undrawb
   981                          	GLOBAL	undrawb_callee
   981                          	GLOBAL	xorborder
   981                          	GLOBAL	xorborder_callee
   981                          	GLOBAL	circle
   981                          	GLOBAL	circle_callee
   981                          	GLOBAL	uncircle
   981                          	GLOBAL	uncircle_callee
   981                          	GLOBAL	xorcircle
   981                          	GLOBAL	xorcircle_callee
   981                          	GLOBAL	clg
   981                          	GLOBAL	clga
   981                          	GLOBAL	clga_callee
   981                          	GLOBAL	xorclga
   981                          	GLOBAL	xorclga_callee
   981                          	GLOBAL	fillb
   981                          	GLOBAL	fillb_callee
   981                          	GLOBAL	putc4x6
   981                          	GLOBAL	_x_4x6
   981                          	GLOBAL	_y_4x6
   981                          	GLOBAL	getmaxx
   981                          	GLOBAL	getmaxy
   981                          	GLOBAL	gfx_set_fatpix
   981                          	GLOBAL	stencil_init
   981                          	GLOBAL	stencil_add_point
   981                          	GLOBAL	stencil_add_liner
   981                          	GLOBAL	stencil_add_lineto
   981                          	GLOBAL	stencil_add_side
   981                          	GLOBAL	stencil_add_circle
   981                          	GLOBAL	stencil_render
   981                          	GLOBAL	draw_profile
   981                          	GLOBAL	c_plot
   981                          	GLOBAL	c_unplot
   981                          	GLOBAL	c_xorplot
   981                          	GLOBAL	c_point
   981                          	GLOBAL	cclg
   981                          	GLOBAL	cplot
   981                          	GLOBAL	cplot_callee
   981                          	GLOBAL	cpoint
   981                          	GLOBAL	cpoint_callee
   981                          	GLOBAL	bcmp
   981                          	GLOBAL	bcmp_callee
   981                          	GLOBAL	bcopy
   981                          	GLOBAL	bcopy_callee
   981                          	GLOBAL	bzero
   981                          	GLOBAL	bzero_callee
   981                          	GLOBAL	index
   981                          	GLOBAL	index_callee
   981                          	GLOBAL	rindex
   981                          	GLOBAL	rindex_callee
   981                          	GLOBAL	strset
   981                          	GLOBAL	strset_callee
   981                          	GLOBAL	strnset
   981                          	GLOBAL	strnset_callee
   981                          	GLOBAL	rawmemchr
   981                          	GLOBAL	rawmemchr_callee
   981                          	GLOBAL	_memlwr_
   981                          	GLOBAL	_memlwr__callee
   981                          	GLOBAL	_memstrcpy_
   981                          	GLOBAL	_memstrcpy__callee
   981                          	GLOBAL	_memupr_
   981                          	GLOBAL	_memupr__callee
   981                          	GLOBAL	_strrstrip_
   981                          	GLOBAL	ffs
   981                          	GLOBAL	ffsl
   981                          	GLOBAL	memccpy
   981                          	GLOBAL	memccpy_callee
   981                          	GLOBAL	memchr
   981                          	GLOBAL	memchr_callee
   981                          	GLOBAL	memcmp
   981                          	GLOBAL	memcmp_callee
   981                          	GLOBAL	memcpy
   981                          	GLOBAL	memcpy_callee
   981                          	GLOBAL	memmem
   981                          	GLOBAL	memmem_callee
   981                          	GLOBAL	memmove
   981                          	GLOBAL	memmove_callee
   981                          	GLOBAL	memrchr
   981                          	GLOBAL	memrchr_callee
   981                          	GLOBAL	memset
   981                          	GLOBAL	memset_callee
   981                          	GLOBAL	memset_wr
   981                          	GLOBAL	memset_wr_callee
   981                          	GLOBAL	memswap
   981                          	GLOBAL	memswap_callee
   981                          	GLOBAL	stpcpy
   981                          	GLOBAL	stpcpy_callee
   981                          	GLOBAL	stpncpy
   981                          	GLOBAL	stpncpy_callee
   981                          	GLOBAL	strcasecmp
   981                          	GLOBAL	strcasecmp_callee
   981                          	GLOBAL	strcat
   981                          	GLOBAL	strcat_callee
   981                          	GLOBAL	strchr
   981                          	GLOBAL	strchr_callee
   981                          	GLOBAL	strchrnul
   981                          	GLOBAL	strchrnul_callee
   981                          	GLOBAL	strcmp
   981                          	GLOBAL	strcmp_callee
   981                          	GLOBAL	strcoll
   981                          	GLOBAL	strcoll_callee
   981                          	GLOBAL	strcpy
   981                          	GLOBAL	strcpy_callee
   981                          	GLOBAL	strcspn
   981                          	GLOBAL	strcspn_callee
   981                          	GLOBAL	strdup
   981                          	GLOBAL	strerror
   981                          	GLOBAL	stricmp
   981                          	GLOBAL	stricmp_callee
   981                          	GLOBAL	strlcat
   981                          	GLOBAL	strlcat_callee
   981                          	GLOBAL	strlcpy
   981                          	GLOBAL	strlcpy_callee
   981                          	GLOBAL	strlen
   981                          	GLOBAL	strlwr
   981                          	GLOBAL	strncasecmp
   981                          	GLOBAL	strncasecmp_callee
   981                          	GLOBAL	strncat
   981                          	GLOBAL	strncat_callee
   981                          	GLOBAL	strnchr
   981                          	GLOBAL	strnchr_callee
   981                          	GLOBAL	strncmp
   981                          	GLOBAL	strncmp_callee
   981                          	GLOBAL	strncpy
   981                          	GLOBAL	strncpy_callee
   981                          	GLOBAL	strndup
   981                          	GLOBAL	strndup_callee
   981                          	GLOBAL	strnicmp
   981                          	GLOBAL	strnicmp_callee
   981                          	GLOBAL	strnlen
   981                          	GLOBAL	strnlen_callee
   981                          	GLOBAL	strpbrk
   981                          	GLOBAL	strpbrk_callee
   981                          	GLOBAL	strrchr
   981                          	GLOBAL	strrchr_callee
   981                          	GLOBAL	strrcspn
   981                          	GLOBAL	strrcspn_callee
   981                          	GLOBAL	strrev
   981                          	GLOBAL	strrspn
   981                          	GLOBAL	strrspn_callee
   981                          	GLOBAL	strrstrip
   981                          	GLOBAL	strsep
   981                          	GLOBAL	strsep_callee
   981                          	GLOBAL	strspn
   981                          	GLOBAL	strspn_callee
   981                          	GLOBAL	strstr
   981                          	GLOBAL	strstr_callee
   981                          	GLOBAL	strstrip
   981                          	GLOBAL	strtok
   981                          	GLOBAL	strtok_callee
   981                          	GLOBAL	strtok_r
   981                          	GLOBAL	strtok_r_callee
   981                          	GLOBAL	strupr
   981                          	GLOBAL	strxfrm
   981                          	GLOBAL	strxfrm_callee
   981                          	GLOBAL	strrstr
   981                          	GLOBAL	strrstr_callee
   981                          	GLOBAL	memopi
   981                          	GLOBAL	memopi_callee
   981                          	GLOBAL	memopd
   981                          	GLOBAL	memopd_callee
   981                          	GLOBAL	__builtin_memset
   981                          	GLOBAL	__builtin_memcpy
   981                          	GLOBAL	__builtin_strcpy
   981                          	GLOBAL	__builtin_strchr
   981                          	GLOBAL	bit_open
   981                          	GLOBAL	bit_open_di
   981                          	GLOBAL	bit_close
   981                          	GLOBAL	bit_close_ei
   981                          	GLOBAL	bit_click
   981                          	GLOBAL	bit_fx
   981                          	GLOBAL	bit_fx2
   981                          	GLOBAL	bit_fx3
   981                          	GLOBAL	bit_fx4
   981                          	GLOBAL	bit_fx5
   981                          	GLOBAL	bit_fx6
   981                          	GLOBAL	bit_fx7
   981                          	GLOBAL	bit_synth
   981                          	GLOBAL	bit_beep
   981                          	GLOBAL	bit_beep_callee
   981                          	GLOBAL	bit_noise
   981                          	GLOBAL	bit_noise_callee
   981                          	GLOBAL	patch_beep
   981                          	GLOBAL	patch_beep_callee
   981                          	GLOBAL	bit_frequency
   981                          	GLOBAL	bit_play
   981                          	GLOBAL	psg_play
   981                          	GLOBAL	synth_phase
   981                          	GLOBAL	_synth_phase_1
   981                          	GLOBAL	_synth_phase_2
   981                          	GLOBAL	_synth_phase_3
   981                          	GLOBAL	_synth_phase_4
   981                          	GLOBAL	synth_play
   981                          	GLOBAL	buzzer_play
   981                          	GLOBAL	playzb4
   981                          	GLOBAL	bit_beepfx
   981                          	GLOBAL	_bfx_0
   981                          	GLOBAL	_bfx_1
   981                          	GLOBAL	_bfx_2
   981                          	GLOBAL	_bfx_3
   981                          	GLOBAL	_bfx_4
   981                          	GLOBAL	_bfx_5
   981                          	GLOBAL	_bfx_6
   981                          	GLOBAL	_bfx_7
   981                          	GLOBAL	_bfx_8
   981                          	GLOBAL	_bfx_9
   981                          	GLOBAL	_bfx_10
   981                          	GLOBAL	_bfx_11
   981                          	GLOBAL	_bfx_12
   981                          	GLOBAL	_bfx_13
   981                          	GLOBAL	_bfx_14
   981                          	GLOBAL	_bfx_15
   981                          	GLOBAL	_bfx_16
   981                          	GLOBAL	_bfx_17
   981                          	GLOBAL	_bfx_18
   981                          	GLOBAL	_bfx_19
   981                          	GLOBAL	_bfx_20
   981                          	GLOBAL	_bfx_21
   981                          	GLOBAL	_bfx_22
   981                          	GLOBAL	_bfx_23
   981                          	GLOBAL	_bfx_24
   981                          	GLOBAL	_bfx_25
   981                          	GLOBAL	_bfx_26
   981                          	GLOBAL	_bfx_27
   981                          	GLOBAL	_bfx_28
   981                          	GLOBAL	_bfx_29
   981                          	GLOBAL	_bfx_30
   981                          	GLOBAL	_bfx_31
   981                          	GLOBAL	_bfx_32
   981                          	GLOBAL	_bfx_33
   981                          	GLOBAL	_bfx_34
   981                          	GLOBAL	_bfx_35
   981                          	GLOBAL	_bfx_36
   981                          	GLOBAL	_bfx_37
   981                          	GLOBAL	_bfx_38
   981                          	GLOBAL	_bfx_39
   981                          	GLOBAL	_bfx_40
   981                          	GLOBAL	_bfx_41
   981                          	GLOBAL	_bfx_42
   981                          	GLOBAL	_bfx_43
   981                          	GLOBAL	_bfx_44
   981                          	GLOBAL	_bfx_45
   981                          	GLOBAL	_bfx_46
   981                          	GLOBAL	_bfx_47
   981                          	GLOBAL	_bfx_48
   981                          	GLOBAL	_bfx_49
   981                          	GLOBAL	_bfx_50
   981                          	GLOBAL	_bfx_51
   981                          	GLOBAL	_bfx_52
   981                          	GLOBAL	_bfx_53
   981                          	GLOBAL	_bfx_54
   981                          	GLOBAL	_bfx_55
   981                          	GLOBAL	_bfx_56
   981                          	GLOBAL	_bfx_57
   981                          	GLOBAL	_ram1_test_data
   981                          	GLOBAL	_error_code
   981                          	GLOBAL	_test_step
   981                          	GLOBAL	_Test_1
   981                          	GLOBAL	_Test_2
   981                          	GLOBAL	_Test_2_1
   981                          	GLOBAL	_Test_3
   981                          	GLOBAL	_Test_4
   981                          	GLOBAL	_Test_5
   981                          	GLOBAL	_Test_6
   981                          	GLOBAL	_Test_7
   981                          	GLOBAL	_Test_8
   981                          	GLOBAL	_Test_9
   981                          	GLOBAL	_Test_10
   981                          	GLOBAL	_Test_11
   981                          	GLOBAL	_Test_12
   981                          	GLOBAL	_main
   981                          
   981                          
   981                          ; --- End of Scope Defns ---
   981                          
   981                          
   981                          ; --- End of Compilation ---
   981                          
